
/home/lays/rrr:     file format elf64-littleriscv


Disassembly of section .text:

0000000000010000 <_ftext>:
   10000:	0000d197          	auipc	gp,0xd
   10004:	6d018193          	addi	gp,gp,1744 # 1d6d0 <_gp>
   10008:	0000d297          	auipc	t0,0xd
   1000c:	f6828293          	addi	t0,t0,-152 # 1cf70 <__malloc_max_total_mem>
   10010:	0000d317          	auipc	t1,0xd
   10014:	00030313          	mv	t1,t1
   10018:	0002b023          	sd	zero,0(t0)
   1001c:	00828293          	addi	t0,t0,8
   10020:	fe62ece3          	bltu	t0,t1,10018 <_ftext+0x18>
   10024:	00001517          	auipc	a0,0x1
   10028:	10850513          	addi	a0,a0,264 # 1112c <__libc_fini_array>
   1002c:	6b8000ef          	jal	ra,106e4 <atexit>
   10030:	59d010ef          	jal	ra,11dcc <__libc_init_array>
   10034:	00012503          	lw	a0,0(sp)
   10038:	00810593          	addi	a1,sp,8
   1003c:	00000613          	li	a2,0
   10040:	61c000ef          	jal	ra,1065c <main>
   10044:	6fc0006f          	j	10740 <exit>

0000000000010048 <_fini>:
   10048:	00008067          	ret

000000000001004c <deregister_tm_clones>:
   1004c:	0001d537          	lui	a0,0x1d
   10050:	0001d7b7          	lui	a5,0x1d
   10054:	ec850713          	addi	a4,a0,-312 # 1cec8 <__TMC_END__>
   10058:	ecf78793          	addi	a5,a5,-305 # 1cecf <__TMC_END__+0x7>
   1005c:	40e787b3          	sub	a5,a5,a4
   10060:	00e00713          	li	a4,14
   10064:	00f77c63          	bleu	a5,a4,1007c <deregister_tm_clones+0x30>
   10068:	00000337          	lui	t1,0x0
   1006c:	00030313          	mv	t1,t1
   10070:	00030663          	beqz	t1,1007c <deregister_tm_clones+0x30>
   10074:	ec850513          	addi	a0,a0,-312
   10078:	00030067          	jr	t1 # 0 <_ftext-0x10000>
   1007c:	00008067          	ret

0000000000010080 <register_tm_clones>:
   10080:	0001d537          	lui	a0,0x1d
   10084:	0001d7b7          	lui	a5,0x1d
   10088:	ec850593          	addi	a1,a0,-312 # 1cec8 <__TMC_END__>
   1008c:	ec878793          	addi	a5,a5,-312 # 1cec8 <__TMC_END__>
   10090:	40b787b3          	sub	a5,a5,a1
   10094:	4037d793          	srai	a5,a5,0x3
   10098:	03f7d593          	srli	a1,a5,0x3f
   1009c:	00f585b3          	add	a1,a1,a5
   100a0:	4015d593          	srai	a1,a1,0x1
   100a4:	00058c63          	beqz	a1,100bc <register_tm_clones+0x3c>
   100a8:	00000337          	lui	t1,0x0
   100ac:	00030313          	mv	t1,t1
   100b0:	00030663          	beqz	t1,100bc <register_tm_clones+0x3c>
   100b4:	ec850513          	addi	a0,a0,-312
   100b8:	00030067          	jr	t1 # 0 <_ftext-0x10000>
   100bc:	00008067          	ret

00000000000100c0 <__do_global_dtors_aux>:
   100c0:	ff010113          	addi	sp,sp,-16
   100c4:	00813023          	sd	s0,0(sp)
   100c8:	8d01c783          	lbu	a5,-1840(gp)
   100cc:	00113423          	sd	ra,8(sp)
   100d0:	02079663          	bnez	a5,100fc <__do_global_dtors_aux+0x3c>
   100d4:	f79ff0ef          	jal	ra,1004c <deregister_tm_clones>
   100d8:	000007b7          	lui	a5,0x0
   100dc:	00078793          	mv	a5,a5
   100e0:	00078a63          	beqz	a5,100f4 <__do_global_dtors_aux+0x34>
   100e4:	0001b537          	lui	a0,0x1b
   100e8:	b7850513          	addi	a0,a0,-1160 # 1ab78 <__fini_array_end>
   100ec:	ffff0317          	auipc	t1,0xffff0
   100f0:	f14300e7          	jalr	-236(t1) # 0 <_ftext-0x10000>
   100f4:	00100793          	li	a5,1
   100f8:	8cf18823          	sb	a5,-1840(gp)
   100fc:	00813083          	ld	ra,8(sp)
   10100:	00013403          	ld	s0,0(sp)
   10104:	01010113          	addi	sp,sp,16
   10108:	00008067          	ret

000000000001010c <frame_dummy>:
   1010c:	ff010113          	addi	sp,sp,-16
   10110:	000007b7          	lui	a5,0x0
   10114:	00113423          	sd	ra,8(sp)
   10118:	00078793          	mv	a5,a5
   1011c:	00078c63          	beqz	a5,10134 <frame_dummy+0x28>
   10120:	0001b537          	lui	a0,0x1b
   10124:	8d818593          	addi	a1,gp,-1832
   10128:	b7850513          	addi	a0,a0,-1160 # 1ab78 <__fini_array_end>
   1012c:	ffff0317          	auipc	t1,0xffff0
   10130:	ed4300e7          	jalr	-300(t1) # 0 <_ftext-0x10000>
   10134:	0001c7b7          	lui	a5,0x1c
   10138:	ec878513          	addi	a0,a5,-312 # 1bec8 <__JCR_END__>
   1013c:	00053783          	ld	a5,0(a0)
   10140:	00079863          	bnez	a5,10150 <frame_dummy+0x44>
   10144:	00813083          	ld	ra,8(sp)
   10148:	01010113          	addi	sp,sp,16
   1014c:	f35ff06f          	j	10080 <register_tm_clones>
   10150:	000007b7          	lui	a5,0x0
   10154:	00078793          	mv	a5,a5
   10158:	fe0786e3          	beqz	a5,10144 <frame_dummy+0x38>
   1015c:	000780e7          	jalr	a5 # 0 <_ftext-0x10000>
   10160:	fe5ff06f          	j	10144 <frame_dummy+0x38>

0000000000010164 <print_flag>:
   10164:	f8010113          	addi	sp,sp,-128
   10168:	06113c23          	sd	ra,120(sp)
   1016c:	06813823          	sd	s0,112(sp)
   10170:	08010413          	addi	s0,sp,128
   10174:	0001a7b7          	lui	a5,0x1a
   10178:	46878593          	addi	a1,a5,1128 # 1a468 <__errno+0xc>
   1017c:	0001a7b7          	lui	a5,0x1a
   10180:	47078513          	addi	a0,a5,1136 # 1a470 <__errno+0x14>
   10184:	128010ef          	jal	ra,112ac <fopen>
   10188:	fea43423          	sd	a0,-24(s0)
   1018c:	fe843783          	ld	a5,-24(s0)
   10190:	02079663          	bnez	a5,101bc <print_flag+0x58>
   10194:	8101b783          	ld	a5,-2032(gp)
   10198:	0187b783          	ld	a5,24(a5)
   1019c:	00078693          	mv	a3,a5
   101a0:	02e00613          	li	a2,46
   101a4:	00100593          	li	a1,1
   101a8:	0001a7b7          	lui	a5,0x1a
   101ac:	48078513          	addi	a0,a5,1152 # 1a480 <__errno+0x24>
   101b0:	405010ef          	jal	ra,11db4 <fwrite>
   101b4:	fff00513          	li	a0,-1
   101b8:	588000ef          	jal	ra,10740 <exit>
   101bc:	f8043023          	sd	zero,-128(s0)
   101c0:	f8043423          	sd	zero,-120(s0)
   101c4:	f8043823          	sd	zero,-112(s0)
   101c8:	f8043c23          	sd	zero,-104(s0)
   101cc:	fa043023          	sd	zero,-96(s0)
   101d0:	fa043423          	sd	zero,-88(s0)
   101d4:	fa043823          	sd	zero,-80(s0)
   101d8:	fa043c23          	sd	zero,-72(s0)
   101dc:	fc043023          	sd	zero,-64(s0)
   101e0:	fc043423          	sd	zero,-56(s0)
   101e4:	fc043823          	sd	zero,-48(s0)
   101e8:	fc043c23          	sd	zero,-40(s0)
   101ec:	fe042023          	sw	zero,-32(s0)
   101f0:	fe042223          	sw	zero,-28(s0)
   101f4:	f8040793          	addi	a5,s0,-128
   101f8:	fe843603          	ld	a2,-24(s0)
   101fc:	06400593          	li	a1,100
   10200:	00078513          	mv	a0,a5
   10204:	3a5000ef          	jal	ra,10da8 <fgets>
   10208:	00050793          	mv	a5,a0
   1020c:	02078063          	beqz	a5,1022c <print_flag+0xc8>
   10210:	0001a7b7          	lui	a5,0x1a
   10214:	4b078513          	addi	a0,a5,1200 # 1a4b0 <__errno+0x54>
   10218:	0a1020ef          	jal	ra,12ab8 <printf>
   1021c:	f8040793          	addi	a5,s0,-128
   10220:	00078513          	mv	a0,a5
   10224:	195020ef          	jal	ra,12bb8 <puts>
   10228:	02c0006f          	j	10254 <print_flag+0xf0>
   1022c:	8101b783          	ld	a5,-2032(gp)
   10230:	0187b783          	ld	a5,24(a5)
   10234:	00078693          	mv	a3,a5
   10238:	02500613          	li	a2,37
   1023c:	00100593          	li	a1,1
   10240:	0001a7b7          	lui	a5,0x1a
   10244:	4d078513          	addi	a0,a5,1232 # 1a4d0 <__errno+0x74>
   10248:	36d010ef          	jal	ra,11db4 <fwrite>
   1024c:	fff00513          	li	a0,-1
   10250:	4f0000ef          	jal	ra,10740 <exit>
   10254:	fe843503          	ld	a0,-24(s0)
   10258:	61c000ef          	jal	ra,10874 <fclose>
   1025c:	00000013          	nop
   10260:	07813083          	ld	ra,120(sp)
   10264:	07013403          	ld	s0,112(sp)
   10268:	08010113          	addi	sp,sp,128
   1026c:	00008067          	ret

0000000000010270 <read_int>:
   10270:	fe010113          	addi	sp,sp,-32
   10274:	00113c23          	sd	ra,24(sp)
   10278:	00813823          	sd	s0,16(sp)
   1027c:	02010413          	addi	s0,sp,32
   10280:	fe043023          	sd	zero,-32(s0)
   10284:	fe041423          	sh	zero,-24(s0)
   10288:	fe040793          	addi	a5,s0,-32
   1028c:	00500613          	li	a2,5
   10290:	00078593          	mv	a1,a5
   10294:	00000513          	li	a0,0
   10298:	665090ef          	jal	ra,1a0fc <read>
   1029c:	fe040793          	addi	a5,s0,-32
   102a0:	00078513          	mv	a0,a5
   102a4:	454000ef          	jal	ra,106f8 <atoi>
   102a8:	00050793          	mv	a5,a0
   102ac:	00078513          	mv	a0,a5
   102b0:	01813083          	ld	ra,24(sp)
   102b4:	01013403          	ld	s0,16(sp)
   102b8:	02010113          	addi	sp,sp,32
   102bc:	00008067          	ret

00000000000102c0 <f4>:
   102c0:	fd010113          	addi	sp,sp,-48
   102c4:	02813423          	sd	s0,40(sp)
   102c8:	03010413          	addi	s0,sp,48
   102cc:	fca42e23          	sw	a0,-36(s0); var36 = arg1
   102d0:	fcb42c23          	sw	a1,-40(s0); var40 = arg2
   102d4:	0300006f          	j	10304 <f4+0x44>

   102d8:	fdc42703          	lw	a4,-36(s0) ; a4 = var36
   102dc:	fd842783          	lw	a5,-40(s0) ; a5 = var40
   102e0:	00f777b3          	and	a5,a4,a5  ; var20 = var36 & var40
   102e4:	fef42623          	sw	a5,-20(s0)

   102e8:	fdc42703          	lw	a4,-36(s0) ; a4 = var36
   102ec:	fd842783          	lw	a5,-40(s0) ; a5 = var40
   102f0:	00f747b3          	xor	a5,a4,a5   ; var36 = var36 ^ var40
   102f4:	fcf42e23          	sw	a5,-36(s0)

   102f8:	fec42783          	lw	a5,-20(s0)
   102fc:	0017979b          	slliw	a5,a5,0x1 ; var40 = var20 << 1
   10300:	fcf42c23          	sw	a5,-40(s0)

   10304:	fd842783          	lw	a5,-40(s0) ; a5 = var40
   10308:	fc0798e3          	bnez	a5,102d8 <f4+0x18>

   1030c:	fdc42783          	lw	a5,-36(s0)  ; reurn var36
   10310:	00078513          	mv	a0,a5
   10314:	02813403          	ld	s0,40(sp)
   10318:	03010113          	addi	sp,sp,48
   1031c:	00008067          	ret

0000000000010320 <f44>: ; * -1
   10320:	fe010113          	addi	sp,sp,-32
   10324:	00113c23          	sd	ra,24(sp)
   10328:	00813823          	sd	s0,16(sp)
   1032c:	02010413          	addi	s0,sp,32

   10330:	fea42623          	sw	a0,-20(s0) ; var20 = arg1
   ; var20 = !var20
   10334:	fec42783          	lw	a5,-20(s0) ; 
   10338:	fff7c793          	not	a5,a5       ;
    ; 
   1033c:	00100593          	li	a1,1        ;
   10340:	00078513          	mv	a0,a5       ; return f4(a5, 1)
   10344:	f7dff0ef          	jal	ra,102c0 <f4>
   10348:	00050793          	mv	a5,a0
   1034c:	00078513          	mv	a0,a5
   10350:	01813083          	ld	ra,24(sp)
   10354:	01013403          	ld	s0,16(sp)
   10358:	02010113          	addi	sp,sp,32
   1035c:	00008067          	ret

0000000000010360 <f444>: ; sub
   10360:	fe010113          	addi	sp,sp,-32
   10364:	00113c23          	sd	ra,24(sp)
   10368:	00813823          	sd	s0,16(sp)
   1036c:	02010413          	addi	s0,sp,32
    ; var20 = arg1
    ; var24 = arg2
   10370:	fea42623          	sw	a0,-20(s0)
   10374:	feb42423          	sw	a1,-24(s0)
   10378:	fe842503          	lw	a0,-24(s0)
   ; a5 = f44(var24)
   1037c:	fa5ff0ef          	jal	ra,10320 <f44>
   10380:	00050793          	mv	a5,a0

    ; f4(var20, a5)
   10384:	00078593          	mv	a1,a5
   10388:	fec42503          	lw	a0,-20(s0)
   1038c:	f35ff0ef          	jal	ra,102c0 <f4>

   10390:	00050793          	mv	a5,a0
   10394:	00078513          	mv	a0,a5
   10398:	01813083          	ld	ra,24(sp)
   1039c:	01013403          	ld	s0,16(sp)
   103a0:	02010113          	addi	sp,sp,32
   103a4:	00008067          	ret

00000000000103a8 <f4444>:
   103a8:	fd010113          	addi	sp,sp,-48
   103ac:	02113423          	sd	ra,40(sp)
   103b0:	02813023          	sd	s0,32(sp)
   103b4:	03010413          	addi	s0,sp,48

   103b8:	fca42e23          	sw	a0,-36(s0)   ; var36 = arg1
   103bc:	fcb42c23          	sw	a1,-40(s0)   ; var40 = arg2

   103c0:	00100793          	li	a5,1         ; 
   103c4:	fef42623          	sw	a5,-20(s0)   ; var20 = 1
   103c8:	fe042423          	sw	zero,-24(s0) ; var24 = 0

   103cc:	fdc42783          	lw	a5,-36(s0)   ; 
   103d0:	0407dc63          	bgez	a5,10428 <f4444+0x80> ; if var36 >= 0 goto 10428

    ; var36 = f44(var36) ; *= -1
   103d4:	fdc42503          	lw	a0,-36(s0)
   103d8:	f49ff0ef          	jal	ra,10320 <f44>
   103dc:	fca42e23          	sw	a0,-36(s0)
    ; var40 = f44(var40) ; *= -1
   103e0:	fd842503          	lw	a0,-40(s0)
   103e4:	f3dff0ef          	jal	ra,10320 <f44>
   103e8:	fca42c23          	sw	a0,-40(s0)
    ; 
   103ec:	03c0006f          	j	10428 <f4444+0x80>

   103f0:	fdc42703          	lw	a4,-36(s0)   ; if var36 & var40 != 0 goto 10410
   103f4:	fec42783          	lw	a5,-20(s0)
   103f8:	00f777b3          	and	a5,a4,a5
   103fc:	00078a63          	beqz	a5,10410 <f4444+0x68>

   ; var24 = f4(var40, var24)
   10400:	fe842583          	lw	a1,-24(s0)
   10404:	fd842503          	lw	a0,-40(s0)
   10408:	eb9ff0ef          	jal	ra,102c0 <f4>
   1040c:	fea42423          	sw	a0,-24(s0)

; var40 <<= 1
   10410:	fd842783          	lw	a5,-40(s0)
   10414:	0017979b          	slliw	a5,a5,0x1
   10418:	fcf42c23          	sw	a5,-40(s0)
; var20 <<=1
   1041c:	fec42783          	lw	a5,-20(s0)
   10420:	0017979b          	slliw	a5,a5,0x1
   10424:	fef42623          	sw	a5,-20(s0)

   10428:	fdc42703          	lw	a4,-36(s0) ; a4 = var36
   1042c:	fec42783          	lw	a5,-20(s0) ; a5 = var20
   10430:	00f74663          	blt	a4,a5,1043c <f4444+0x94> ; if var36 < var20 ; goto 1043c

   10434:	fd842783          	lw	a5,-40(s0)
   10438:	fa079ce3          	bnez	a5,103f0 <f4444+0x48> ; if var40 != 0 goto 103f0

   1043c:	fe842783          	lw	a5,-24(s0)
   10440:	00078513          	mv	a0,a5
   10444:	02813083          	ld	ra,40(sp)
   10448:	02013403          	ld	s0,32(sp)
   1044c:	03010113          	addi	sp,sp,48
   10450:	00008067          	ret

0000000000010454 <game>:
   10454:	fb010113          	addi	sp,sp,-80
   10458:	04113423          	sd	ra,72(sp)
   1045c:	04813023          	sd	s0,64(sp)
   10460:	05010413          	addi	s0,sp,80
   10464:	fe042623          	sw	zero,-20(s0)
   10468:	fe042423          	sw	zero,-24(s0)

   ; fopen("/dev/urandom", "r")
   1046c:	0001a7b7          	lui	a5,0x1a
   10470:	46878593          	addi	a1,a5,1128 # 1a468 <__errno+0xc>
   10474:	0001a7b7          	lui	a5,0x1a
   10478:	4f878513          	addi	a0,a5,1272 # 1a4f8 <__errno+0x9c>
   1047c:	631000ef          	jal	ra,112ac <fopen>
   10480:	fea43023          	sd	a0,-32(s0)
   10484:	fe043783          	ld	a5,-32(s0)
   ; if fp !=0 go 104b4
       10488:	02079663          	bnez	a5,104b4 <game+0x60>
       1048c:	8101b783          	ld	a5,-2032(gp)
       10490:	0187b783          	ld	a5,24(a5)
       10494:	00078693          	mv	a3,a5
       10498:	02c00613          	li	a2,44
       1049c:	00100593          	li	a1,1
       104a0:	0001a7b7          	lui	a5,0x1a
       104a4:	50878513          	addi	a0,a5,1288 # 1a508 <__errno+0xac>
       104a8:	10d010ef          	jal	ra,11db4 <fwrite>
       ; fwirte Error
       104ac:	fff00513          	li	a0,-1
       104b0:	290000ef          	jal	ra,10740 <exit>

   104b4:	fe042623          	sw	zero,-20(s0)
   104b8:	17c0006f          	j	10634 <game+0x1e0>
   104bc:	fec42783          	lw	a5,-20(s0); i 
   104c0:	0017879b          	addiw	a5,a5,1 ; i ++
   ; printf("round %d\n", i);
   104c4:	00078593          	mv	a1,a5
   104c8:	0001a7b7          	lui	a5,0x1a
   104cc:	53878513          	addi	a0,a5,1336 # 1a538 <__errno+0xdc>
   104d0:	5e8020ef          	jal	ra,12ab8 <printf>

   ; fget(random)
   104d4:	fe043503          	ld	a0,-32(s0)
   104d8:	700000ef          	jal	ra,10bd8 <fgetc>
   104dc:	fca42e23          	sw	a0,-36(s0)

   104e0:	fe043503          	ld	a0,-32(s0)
   104e4:	6f4000ef          	jal	ra,10bd8 <fgetc>
   104e8:	fca42c23          	sw	a0,-40(s0)

   104ec:	fe043503          	ld	a0,-32(s0)
   104f0:	6e8000ef          	jal	ra,10bd8 <fgetc>
   104f4:	fca42a23          	sw	a0,-44(s0)

   104f8:	fe043503          	ld	a0,-32(s0)
   104f:	6dc000ef          	jal	ra,10bd8 <fgetc>
   10500:	fca42823          	sw	a0,-48(s0)

; f4(var52=0, rand[0])
; var52 += rand[0]
   10504:	fc042623          	sw	zero,-52(s0)
   10508:	fdc42583          	lw	a1,-36(s0)
   1050c:	fcc42503          	lw	a0,-52(s0)
   10510:	db1ff0ef          	jal	ra,102c0 <f4>
   10514:	fca42623          	sw	a0,-52(s0)
; var 52 = f4444(var52, rand[1]);
   10518:	fd842583          	lw	a1,-40(s0)
   1051c:	fcc42503          	lw	a0,-52(s0)
   10520:	e89ff0ef          	jal	ra,103a8 <f4444>
   10524:	fca42623          	sw	a0,-52(s0)
; f444(var52, rand[2]);
;  var52 -= rand[2]
   10528:	fd442583          	lw	a1,-44(s0)
   1052c:	fcc42503          	lw	a0,-52(s0)
   10530:	e31ff0ef          	jal	ra,10360 <f444>
   10534:	fca42623          	sw	a0,-52(s0)
; f4444(var52, rand[3]);
   10538:	fd042583          	lw	a1,-48(s0)
   1053c:	fcc42503          	lw	a0,-52(s0)
   10540:	e69ff0ef          	jal	ra,103a8 <f4444>

; printf("secret %d\n", var_52);
   10544:	fca42623          	sw	a0,-52(s0)
   10548:	fcc42583          	lw	a1,-52(s0)
   1054c:	0001a7b7          	lui	a5,0x1a
   10550:	54878513          	addi	a0,a5,1352 # 1a548 <__errno+0xec>
   10554:	564020ef          	jal	ra,12ab8 <printf>

; var24 = 0
   10558:	fe042423          	sw	zero,-24(s0)
   1055c:	0440006f          	j	105a0 <game+0x14c>

    ; i++
   10560:	fe842783          	lw	a5,-24(s0)
   10564:	0017879b          	addiw	a5,a5,1
   ; a1 = i + 1
   10568:	00078593          	mv	a1,a5
; printf("\n");
   1056c:	0001a7b7          	lui	a5,0x1a
   10570:	55878513          	addi	a0,a5,1368 # 1a558 <__errno+0xfc>
   10574:	544020ef          	jal	ra,12ab8 <printf>

; a4 = read_int()
   10578:	cf9ff0ef          	jal	ra,10270 <read_int>
   1057c:	00050713          	mv	a4,a0
;a5 = var24 << 2  (i*4)
   10580:	fe842783          	lw	a5,-24(s0)
   10584:	00279793          	slli	a5,a5,0x2
;a3  = s0 - 16
   10588:	ff040693          	addi	a3,s0,-16
; a5 += a3
   1058c:	00f687b3          	add	a5,a3,a5
; ans[i] = a4
   10590:	fce7a423          	sw	a4,-56(a5)
   10594:	fe842783          	lw	a5,-24(s0)
   10598:	0017879b          	addiw	a5,a5,1
   1059c:	fef42423          	sw	a5,-24(s0)

;a4 = var24 (i)
;a5 = 3
   105a0:	fe842703          	lw	a4,-24(s0)
   105a4:	00300793          	li	a5,3

   105a8:	fae7dce3          	ble	a4,a5,10560 <game+0x10c>

;var56 = 0
; f4(0, 
   105ac:	fc042423          	sw	zero,-56(s0)
   105b0:	fb842783          	lw	a5,-72(s0)
   105b4:	00078593          	mv	a1,a5
   105b8:	fc842503          	lw	a0,-56(s0)
   105bc:	d05ff0ef          	jal	ra,102c0 <f4>

   105c0:	fca42423          	sw	a0,-56(s0)
   105c4:	fbc42783          	lw	a5,-68(s0)
   105c8:	00078593          	mv	a1,a5
   105cc:	fc842503          	lw	a0,-56(s0)
   105d0:	dd9ff0ef          	jal	ra,103a8 <f4444>
   105d4:	fca42423          	sw	a0,-56(s0)

   105d8:	fc042783          	lw	a5,-64(s0)
   105dc:	00078593          	mv	a1,a5
   105e0:	fc842503          	lw	a0,-56(s0)
   105e4:	d7dff0ef          	jal	ra,10360 <f444>
   105e8:	fca42423          	sw	a0,-56(s0)

   105ec:	fc442783          	lw	a5,-60(s0)
   105f0:	00078593          	mv	a1,a5
   105f4:	fc842503          	lw	a0,-56(s0)
   105f8:	db1ff0ef          	jal	ra,103a8 <f4444>
   105fc:	fca42423          	sw	a0,-56(s0)

   ; if var52 == var 56 goto pass
   10600:	fcc42703          	lw	a4,-52(s0)
   10604:	fc842783          	lw	a5,-56(s0)
   10608:	00f70a63          	beq	a4,a5,1061c <game+0x1c8>

       ;puts("Failed")
       1060c:	0001a7b7          	lui	a5,0x1a
       10610:	57878513          	addi	a0,a5,1400 # 1a578 <__errno+0x11c>
       10614:	5a4020ef          	jal	ra,12bb8 <puts>
       10618:	0340006f          	j	1064c <game+0x1f8>

   ;puts("Pass")
   1061c:	0001a7b7          	lui	a5,0x1a
   10620:	58878513          	addi	a0,a5,1416 # 1a588 <__errno+0x12c>
   10624:	594020ef          	jal	ra,12bb8 <puts>

   10628:	fec42783          	lw	a5,-20(s0)
   1062c:	0017879b          	addiw	a5,a5,1
   10630:	fef42623          	sw	a5,-20(s0)

   10634:	fec42703          	lw	a4,-20(s0)
   10638:	00900793          	li	a5,9
   ;while i < 9
   1063c:	e8e7d0e3          	ble	a4,a5,104bc <game+0x68>
   10640:	fe043503          	ld	a0,-32(s0)
   10644:	230000ef          	jal	ra,10874 <fclose>
   10648:	b1dff0ef          	jal	ra,10164 <print_flag>
   1064c:	04813083          	ld	ra,72(sp)
   10650:	04013403          	ld	s0,64(sp)
   10654:	05010113          	addi	sp,sp,80
   10658:	00008067          	ret

000000000001065c <main>:
   1065c:	fe010113          	addi	sp,sp,-32
   10660:	00113c23          	sd	ra,24(sp)
   10664:	00813823          	sd	s0,16(sp)
   10668:	02010413          	addi	s0,sp,32
   1066c:	fea42623          	sw	a0,-20(s0)
   10670:	feb43023          	sd	a1,-32(s0)
   10674:	8101b783          	ld	a5,-2032(gp)
   10678:	0087b783          	ld	a5,8(a5)
   1067c:	00000693          	li	a3,0
   10680:	00200613          	li	a2,2
   10684:	00000593          	li	a1,0
   10688:	00078513          	mv	a0,a5
   1068c:	01d020ef          	jal	ra,12ea8 <setvbuf>
   10690:	8101b783          	ld	a5,-2032(gp)
   10694:	0107b783          	ld	a5,16(a5)
   10698:	00000693          	li	a3,0
   1069c:	00200613          	li	a2,2
   106a0:	00000593          	li	a1,0
   106a4:	00078513          	mv	a0,a5
   106a8:	001020ef          	jal	ra,12ea8 <setvbuf>
   106ac:	8101b783          	ld	a5,-2032(gp)
   106b0:	0187b783          	ld	a5,24(a5)
   106b4:	00000693          	li	a3,0
   106b8:	00200613          	li	a2,2
   106bc:	00000593          	li	a1,0
   106c0:	00078513          	mv	a0,a5
   106c4:	7e4020ef          	jal	ra,12ea8 <setvbuf>
   106c8:	d8dff0ef          	jal	ra,10454 <game>
   106cc:	00000793          	li	a5,0
   106d0:	00078513          	mv	a0,a5
   106d4:	01813083          	ld	ra,24(sp)
   106d8:	01013403          	ld	s0,16(sp)
   106dc:	02010113          	addi	sp,sp,32
   106e0:	00008067          	ret

00000000000106e4 <atexit>:
   106e4:	00050593          	mv	a1,a0
   106e8:	00000693          	li	a3,0
   106ec:	00000613          	li	a2,0
   106f0:	00000513          	li	a0,0
   106f4:	4690406f          	j	1535c <__register_exitproc>

00000000000106f8 <atoi>:
   106f8:	ff010113          	addi	sp,sp,-16
   106fc:	00a00613          	li	a2,10
   10700:	00000593          	li	a1,0
   10704:	00113423          	sd	ra,8(sp)
   10708:	581020ef          	jal	ra,13488 <strtol>
   1070c:	00813083          	ld	ra,8(sp)
   10710:	0005051b          	sext.w	a0,a0
   10714:	01010113          	addi	sp,sp,16
   10718:	00008067          	ret

000000000001071c <_atoi_r>:
   1071c:	ff010113          	addi	sp,sp,-16
   10720:	00a00693          	li	a3,10
   10724:	00000613          	li	a2,0
   10728:	00113423          	sd	ra,8(sp)
   1072c:	381020ef          	jal	ra,132ac <_strtol_r>
   10730:	00813083          	ld	ra,8(sp)
   10734:	0005051b          	sext.w	a0,a0
   10738:	01010113          	addi	sp,sp,16
   1073c:	00008067          	ret

0000000000010740 <exit>:
   10740:	ff010113          	addi	sp,sp,-16
   10744:	00000593          	li	a1,0
   10748:	00813023          	sd	s0,0(sp)
   1074c:	00113423          	sd	ra,8(sp)
   10750:	00050413          	mv	s0,a0
   10754:	519040ef          	jal	ra,1546c <__call_exitprocs>
   10758:	8081b503          	ld	a0,-2040(gp)
   1075c:	05853783          	ld	a5,88(a0)
   10760:	00078463          	beqz	a5,10768 <exit+0x28>
   10764:	000780e7          	jalr	a5
   10768:	00040513          	mv	a0,s0
   1076c:	4d5090ef          	jal	ra,1a440 <_exit>

0000000000010770 <_fclose_r>:
   10770:	0e058e63          	beqz	a1,1086c <_fclose_r+0xfc>
   10774:	fe010113          	addi	sp,sp,-32
   10778:	00813823          	sd	s0,16(sp)
   1077c:	00913423          	sd	s1,8(sp)
   10780:	00113c23          	sd	ra,24(sp)
   10784:	01213023          	sd	s2,0(sp)
   10788:	00050493          	mv	s1,a0
   1078c:	00058413          	mv	s0,a1
   10790:	00050663          	beqz	a0,1079c <_fclose_r+0x2c>
   10794:	05052783          	lw	a5,80(a0)
   10798:	0a078a63          	beqz	a5,1084c <_fclose_r+0xdc>
   1079c:	01041783          	lh	a5,16(s0)
   107a0:	00000513          	li	a0,0
   107a4:	00079e63          	bnez	a5,107c0 <_fclose_r+0x50>
   107a8:	01813083          	ld	ra,24(sp)
   107ac:	01013403          	ld	s0,16(sp)
   107b0:	00813483          	ld	s1,8(sp)
   107b4:	00013903          	ld	s2,0(sp)
   107b8:	02010113          	addi	sp,sp,32
   107bc:	00008067          	ret
   107c0:	00040593          	mv	a1,s0
   107c4:	00048513          	mv	a0,s1
   107c8:	0b8000ef          	jal	ra,10880 <__sflush_r>
   107cc:	05043783          	ld	a5,80(s0)
   107d0:	00050913          	mv	s2,a0
   107d4:	00078a63          	beqz	a5,107e8 <_fclose_r+0x78>
   107d8:	03043583          	ld	a1,48(s0)
   107dc:	00048513          	mv	a0,s1
   107e0:	000780e7          	jalr	a5
   107e4:	06054863          	bltz	a0,10854 <_fclose_r+0xe4>
   107e8:	01045783          	lhu	a5,16(s0)
   107ec:	0807f793          	andi	a5,a5,128
   107f0:	06079663          	bnez	a5,1085c <_fclose_r+0xec>
   107f4:	05843583          	ld	a1,88(s0)
   107f8:	00058c63          	beqz	a1,10810 <_fclose_r+0xa0>
   107fc:	07440793          	addi	a5,s0,116
   10800:	00f58663          	beq	a1,a5,1080c <_fclose_r+0x9c>
   10804:	00048513          	mv	a0,s1
   10808:	3cd000ef          	jal	ra,113d4 <_free_r>
   1080c:	04043c23          	sd	zero,88(s0)
   10810:	07843583          	ld	a1,120(s0)
   10814:	00058863          	beqz	a1,10824 <_fclose_r+0xb4>
   10818:	00048513          	mv	a0,s1
   1081c:	3b9000ef          	jal	ra,113d4 <_free_r>
   10820:	06043c23          	sd	zero,120(s0)
   10824:	0d9000ef          	jal	ra,110fc <__sfp_lock_acquire>
   10828:	00041823          	sh	zero,16(s0)
   1082c:	0d5000ef          	jal	ra,11100 <__sfp_lock_release>
   10830:	01813083          	ld	ra,24(sp)
   10834:	00090513          	mv	a0,s2
   10838:	01013403          	ld	s0,16(sp)
   1083c:	00813483          	ld	s1,8(sp)
   10840:	00013903          	ld	s2,0(sp)
   10844:	02010113          	addi	sp,sp,32
   10848:	00008067          	ret
   1084c:	0a1000ef          	jal	ra,110ec <__sinit>
   10850:	f4dff06f          	j	1079c <_fclose_r+0x2c>
   10854:	fff00913          	li	s2,-1
   10858:	f91ff06f          	j	107e8 <_fclose_r+0x78>
   1085c:	01843583          	ld	a1,24(s0)
   10860:	00048513          	mv	a0,s1
   10864:	371000ef          	jal	ra,113d4 <_free_r>
   10868:	f8dff06f          	j	107f4 <_fclose_r+0x84>
   1086c:	00000513          	li	a0,0
   10870:	00008067          	ret

0000000000010874 <fclose>:
   10874:	00050593          	mv	a1,a0
   10878:	8101b503          	ld	a0,-2032(gp)
   1087c:	ef5ff06f          	j	10770 <_fclose_r>

0000000000010880 <__sflush_r>:
   10880:	01059683          	lh	a3,16(a1)
   10884:	fd010113          	addi	sp,sp,-48
   10888:	00913c23          	sd	s1,24(sp)
   1088c:	03069713          	slli	a4,a3,0x30
   10890:	03075713          	srli	a4,a4,0x30
   10894:	01313423          	sd	s3,8(sp)
   10898:	02113423          	sd	ra,40(sp)
   1089c:	02813023          	sd	s0,32(sp)
   108a0:	01213823          	sd	s2,16(sp)
   108a4:	00877793          	andi	a5,a4,8
   108a8:	00058493          	mv	s1,a1
   108ac:	00050993          	mv	s3,a0
   108b0:	0e079863          	bnez	a5,109a0 <__sflush_r+0x120>
   108b4:	000017b7          	lui	a5,0x1
   108b8:	8007879b          	addiw	a5,a5,-2048
   108bc:	00f6e7b3          	or	a5,a3,a5
   108c0:	0107979b          	slliw	a5,a5,0x10
   108c4:	0085a703          	lw	a4,8(a1)
   108c8:	4107d79b          	sraiw	a5,a5,0x10
   108cc:	00f59823          	sh	a5,16(a1)
   108d0:	1ae05863          	blez	a4,10a80 <__sflush_r+0x200>
   108d4:	0484b703          	ld	a4,72(s1)
   108d8:	0a070463          	beqz	a4,10980 <__sflush_r+0x100>
   108dc:	03079793          	slli	a5,a5,0x30
   108e0:	0307d793          	srli	a5,a5,0x30
   108e4:	0009a403          	lw	s0,0(s3)
   108e8:	03379693          	slli	a3,a5,0x33
   108ec:	0009a023          	sw	zero,0(s3)
   108f0:	1806de63          	bgez	a3,10a8c <__sflush_r+0x20c>
   108f4:	0904b603          	ld	a2,144(s1)
   108f8:	0047f793          	andi	a5,a5,4
   108fc:	00078e63          	beqz	a5,10918 <__sflush_r+0x98>
   10900:	0084a683          	lw	a3,8(s1)
   10904:	0584b783          	ld	a5,88(s1)
   10908:	40d60633          	sub	a2,a2,a3
   1090c:	00078663          	beqz	a5,10918 <__sflush_r+0x98>
   10910:	0704a783          	lw	a5,112(s1)
   10914:	40f60633          	sub	a2,a2,a5
   10918:	0304b583          	ld	a1,48(s1)
   1091c:	00000693          	li	a3,0
   10920:	00098513          	mv	a0,s3
   10924:	000700e7          	jalr	a4
   10928:	fff00793          	li	a5,-1
   1092c:	0ef50c63          	beq	a0,a5,10a24 <__sflush_r+0x1a4>
   10930:	0104d683          	lhu	a3,16(s1)
   10934:	fffff7b7          	lui	a5,0xfffff
   10938:	7ff7879b          	addiw	a5,a5,2047
   1093c:	0184b703          	ld	a4,24(s1)
   10940:	00f6f7b3          	and	a5,a3,a5
   10944:	0107979b          	slliw	a5,a5,0x10
   10948:	4107d79b          	sraiw	a5,a5,0x10
   1094c:	00e4b023          	sd	a4,0(s1)
   10950:	00f49823          	sh	a5,16(s1)
   10954:	0004a423          	sw	zero,8(s1)
   10958:	03379713          	slli	a4,a5,0x33
   1095c:	10074e63          	bltz	a4,10a78 <__sflush_r+0x1f8>
   10960:	0584b583          	ld	a1,88(s1)
   10964:	0089a023          	sw	s0,0(s3)
   10968:	00058c63          	beqz	a1,10980 <__sflush_r+0x100>
   1096c:	07448793          	addi	a5,s1,116
   10970:	00f58663          	beq	a1,a5,1097c <__sflush_r+0xfc>
   10974:	00098513          	mv	a0,s3
   10978:	25d000ef          	jal	ra,113d4 <_free_r>
   1097c:	0404bc23          	sd	zero,88(s1)
   10980:	00000513          	li	a0,0
   10984:	02813083          	ld	ra,40(sp)
   10988:	02013403          	ld	s0,32(sp)
   1098c:	01813483          	ld	s1,24(sp)
   10990:	01013903          	ld	s2,16(sp)
   10994:	00813983          	ld	s3,8(sp)
   10998:	03010113          	addi	sp,sp,48
   1099c:	00008067          	ret
   109a0:	0185b903          	ld	s2,24(a1)
   109a4:	fc090ee3          	beqz	s2,10980 <__sflush_r+0x100>
   109a8:	0005b403          	ld	s0,0(a1)
   109ac:	00377713          	andi	a4,a4,3
   109b0:	0125b023          	sd	s2,0(a1)
   109b4:	4124043b          	subw	s0,s0,s2
   109b8:	00000793          	li	a5,0
   109bc:	00071463          	bnez	a4,109c4 <__sflush_r+0x144>
   109c0:	0205a783          	lw	a5,32(a1)
   109c4:	00f4a623          	sw	a5,12(s1)
   109c8:	00804863          	bgtz	s0,109d8 <__sflush_r+0x158>
   109cc:	fb5ff06f          	j	10980 <__sflush_r+0x100>
   109d0:	00a90933          	add	s2,s2,a0
   109d4:	fa8056e3          	blez	s0,10980 <__sflush_r+0x100>
   109d8:	0404b783          	ld	a5,64(s1)
   109dc:	0304b583          	ld	a1,48(s1)
   109e0:	00040693          	mv	a3,s0
   109e4:	00090613          	mv	a2,s2
   109e8:	00098513          	mv	a0,s3
   109ec:	000780e7          	jalr	a5 # fffffffffffff000 <_gp+0xfffffffffffe1930>
   109f0:	40a4043b          	subw	s0,s0,a0
   109f4:	fca04ee3          	bgtz	a0,109d0 <__sflush_r+0x150>
   109f8:	0104d783          	lhu	a5,16(s1)
   109fc:	02813083          	ld	ra,40(sp)
   10a00:	fff00513          	li	a0,-1
   10a04:	0407e793          	ori	a5,a5,64
   10a08:	00f49823          	sh	a5,16(s1)
   10a0c:	02013403          	ld	s0,32(sp)
   10a10:	01813483          	ld	s1,24(sp)
   10a14:	01013903          	ld	s2,16(sp)
   10a18:	00813983          	ld	s3,8(sp)
   10a1c:	03010113          	addi	sp,sp,48
   10a20:	00008067          	ret
   10a24:	0009a703          	lw	a4,0(s3)
   10a28:	01d00793          	li	a5,29
   10a2c:	fce7e6e3          	bltu	a5,a4,109f8 <__sflush_r+0x178>
   10a30:	204007b7          	lui	a5,0x20400
   10a34:	00178793          	addi	a5,a5,1 # 20400001 <_gp+0x203e2931>
   10a38:	00e7d7b3          	srl	a5,a5,a4
   10a3c:	0017f793          	andi	a5,a5,1
   10a40:	fa078ce3          	beqz	a5,109f8 <__sflush_r+0x178>
   10a44:	0104d603          	lhu	a2,16(s1)
   10a48:	fffff7b7          	lui	a5,0xfffff
   10a4c:	7ff7879b          	addiw	a5,a5,2047
   10a50:	0184b683          	ld	a3,24(s1)
   10a54:	00f677b3          	and	a5,a2,a5
   10a58:	0107979b          	slliw	a5,a5,0x10
   10a5c:	4107d79b          	sraiw	a5,a5,0x10
   10a60:	00d4b023          	sd	a3,0(s1)
   10a64:	00f49823          	sh	a5,16(s1)
   10a68:	0004a423          	sw	zero,8(s1)
   10a6c:	03379693          	slli	a3,a5,0x33
   10a70:	ee06d8e3          	bgez	a3,10960 <__sflush_r+0xe0>
   10a74:	ee0716e3          	bnez	a4,10960 <__sflush_r+0xe0>
   10a78:	08a4b823          	sd	a0,144(s1)
   10a7c:	ee5ff06f          	j	10960 <__sflush_r+0xe0>
   10a80:	0705a703          	lw	a4,112(a1)
   10a84:	e4e048e3          	bgtz	a4,108d4 <__sflush_r+0x54>
   10a88:	ef9ff06f          	j	10980 <__sflush_r+0x100>
   10a8c:	0304b583          	ld	a1,48(s1)
   10a90:	00000613          	li	a2,0
   10a94:	00100693          	li	a3,1
   10a98:	00098513          	mv	a0,s3
   10a9c:	000700e7          	jalr	a4
   10aa0:	fff00793          	li	a5,-1
   10aa4:	00050613          	mv	a2,a0
   10aa8:	00f50863          	beq	a0,a5,10ab8 <__sflush_r+0x238>
   10aac:	0104d783          	lhu	a5,16(s1)
   10ab0:	0484b703          	ld	a4,72(s1)
   10ab4:	e45ff06f          	j	108f8 <__sflush_r+0x78>
   10ab8:	0009a783          	lw	a5,0(s3)
   10abc:	fe0788e3          	beqz	a5,10aac <__sflush_r+0x22c>
   10ac0:	01d00713          	li	a4,29
   10ac4:	00e78663          	beq	a5,a4,10ad0 <__sflush_r+0x250>
   10ac8:	01600713          	li	a4,22
   10acc:	00e79863          	bne	a5,a4,10adc <__sflush_r+0x25c>
   10ad0:	0089a023          	sw	s0,0(s3)
   10ad4:	00000513          	li	a0,0
   10ad8:	eadff06f          	j	10984 <__sflush_r+0x104>
   10adc:	0104d783          	lhu	a5,16(s1)
   10ae0:	0407e793          	ori	a5,a5,64
   10ae4:	00f49823          	sh	a5,16(s1)
   10ae8:	e9dff06f          	j	10984 <__sflush_r+0x104>

0000000000010aec <_fflush_r>:
   10aec:	fe010113          	addi	sp,sp,-32
   10af0:	00813823          	sd	s0,16(sp)
   10af4:	00113c23          	sd	ra,24(sp)
   10af8:	00050413          	mv	s0,a0
   10afc:	00050663          	beqz	a0,10b08 <_fflush_r+0x1c>
   10b00:	05052783          	lw	a5,80(a0)
   10b04:	02078a63          	beqz	a5,10b38 <_fflush_r+0x4c>
   10b08:	01059783          	lh	a5,16(a1)
   10b0c:	00079c63          	bnez	a5,10b24 <_fflush_r+0x38>
   10b10:	01813083          	ld	ra,24(sp)
   10b14:	00000513          	li	a0,0
   10b18:	01013403          	ld	s0,16(sp)
   10b1c:	02010113          	addi	sp,sp,32
   10b20:	00008067          	ret
   10b24:	00040513          	mv	a0,s0
   10b28:	01813083          	ld	ra,24(sp)
   10b2c:	01013403          	ld	s0,16(sp)
   10b30:	02010113          	addi	sp,sp,32
   10b34:	d4dff06f          	j	10880 <__sflush_r>
   10b38:	00b13423          	sd	a1,8(sp)
   10b3c:	5b0000ef          	jal	ra,110ec <__sinit>
   10b40:	00813583          	ld	a1,8(sp)
   10b44:	fc5ff06f          	j	10b08 <_fflush_r+0x1c>

0000000000010b48 <fflush>:
   10b48:	00050593          	mv	a1,a0
   10b4c:	00050663          	beqz	a0,10b58 <fflush+0x10>
   10b50:	8101b503          	ld	a0,-2032(gp)
   10b54:	f99ff06f          	j	10aec <_fflush_r>
   10b58:	8081b503          	ld	a0,-2040(gp)
   10b5c:	000115b7          	lui	a1,0x11
   10b60:	aec58593          	addi	a1,a1,-1300 # 10aec <_fflush_r>
   10b64:	0c40106f          	j	11c28 <_fwalk_reent>

0000000000010b68 <_fgetc_r>:
   10b68:	fe010113          	addi	sp,sp,-32
   10b6c:	00813823          	sd	s0,16(sp)
   10b70:	00113c23          	sd	ra,24(sp)
   10b74:	00050413          	mv	s0,a0
   10b78:	00050663          	beqz	a0,10b84 <_fgetc_r+0x1c>
   10b7c:	05052783          	lw	a5,80(a0)
   10b80:	02078a63          	beqz	a5,10bb4 <_fgetc_r+0x4c>
   10b84:	0085a783          	lw	a5,8(a1)
   10b88:	fff7879b          	addiw	a5,a5,-1
   10b8c:	00f5a423          	sw	a5,8(a1)
   10b90:	0207ca63          	bltz	a5,10bc4 <_fgetc_r+0x5c>
   10b94:	0005b783          	ld	a5,0(a1)
   10b98:	01813083          	ld	ra,24(sp)
   10b9c:	01013403          	ld	s0,16(sp)
   10ba0:	00178713          	addi	a4,a5,1 # fffffffffffff001 <_gp+0xfffffffffffe1931>
   10ba4:	00e5b023          	sd	a4,0(a1)
   10ba8:	0007c503          	lbu	a0,0(a5)
   10bac:	02010113          	addi	sp,sp,32
   10bb0:	00008067          	ret
   10bb4:	00b13423          	sd	a1,8(sp)
   10bb8:	534000ef          	jal	ra,110ec <__sinit>
   10bbc:	00813583          	ld	a1,8(sp)
   10bc0:	fc5ff06f          	j	10b84 <_fgetc_r+0x1c>
   10bc4:	00040513          	mv	a0,s0
   10bc8:	01813083          	ld	ra,24(sp)
   10bcc:	01013403          	ld	s0,16(sp)
   10bd0:	02010113          	addi	sp,sp,32
   10bd4:	2540206f          	j	12e28 <__srget_r>

0000000000010bd8 <fgetc>:
   10bd8:	fe010113          	addi	sp,sp,-32
   10bdc:	00913423          	sd	s1,8(sp)
   10be0:	8101b483          	ld	s1,-2032(gp)
   10be4:	00813823          	sd	s0,16(sp)
   10be8:	00113c23          	sd	ra,24(sp)
   10bec:	00050413          	mv	s0,a0
   10bf0:	00048663          	beqz	s1,10bfc <fgetc+0x24>
   10bf4:	0504a783          	lw	a5,80(s1)
   10bf8:	02078c63          	beqz	a5,10c30 <fgetc+0x58>
   10bfc:	00842783          	lw	a5,8(s0)
   10c00:	fff7879b          	addiw	a5,a5,-1
   10c04:	00f42423          	sw	a5,8(s0)
   10c08:	0207ca63          	bltz	a5,10c3c <fgetc+0x64>
   10c0c:	00043783          	ld	a5,0(s0)
   10c10:	01813083          	ld	ra,24(sp)
   10c14:	00813483          	ld	s1,8(sp)
   10c18:	00178713          	addi	a4,a5,1
   10c1c:	00e43023          	sd	a4,0(s0)
   10c20:	0007c503          	lbu	a0,0(a5)
   10c24:	01013403          	ld	s0,16(sp)
   10c28:	02010113          	addi	sp,sp,32
   10c2c:	00008067          	ret
   10c30:	00048513          	mv	a0,s1
   10c34:	4b8000ef          	jal	ra,110ec <__sinit>
   10c38:	fc5ff06f          	j	10bfc <fgetc+0x24>
   10c3c:	00040593          	mv	a1,s0
   10c40:	00048513          	mv	a0,s1
   10c44:	01813083          	ld	ra,24(sp)
   10c48:	01013403          	ld	s0,16(sp)
   10c4c:	00813483          	ld	s1,8(sp)
   10c50:	02010113          	addi	sp,sp,32
   10c54:	1d40206f          	j	12e28 <__srget_r>

0000000000010c58 <_fgets_r>:
   10c58:	00100793          	li	a5,1
   10c5c:	14c7d263          	ble	a2,a5,10da0 <_fgets_r+0x148>
   10c60:	fb010113          	addi	sp,sp,-80
   10c64:	02913c23          	sd	s1,56(sp)
   10c68:	03213823          	sd	s2,48(sp)
   10c6c:	03313423          	sd	s3,40(sp)
   10c70:	03413023          	sd	s4,32(sp)
   10c74:	04113423          	sd	ra,72(sp)
   10c78:	04813023          	sd	s0,64(sp)
   10c7c:	01513c23          	sd	s5,24(sp)
   10c80:	01613823          	sd	s6,16(sp)
   10c84:	01713423          	sd	s7,8(sp)
   10c88:	00050993          	mv	s3,a0
   10c8c:	00068493          	mv	s1,a3
   10c90:	00058a13          	mv	s4,a1
   10c94:	00060913          	mv	s2,a2
   10c98:	00050663          	beqz	a0,10ca4 <_fgets_r+0x4c>
   10c9c:	05052783          	lw	a5,80(a0)
   10ca0:	0e078863          	beqz	a5,10d90 <_fgets_r+0x138>
   10ca4:	fff9091b          	addiw	s2,s2,-1
   10ca8:	000a0a93          	mv	s5,s4
   10cac:	0600006f          	j	10d0c <_fgets_r+0xb4>
   10cb0:	00a00593          	li	a1,10
   10cb4:	0004bb03          	ld	s6,0(s1)
   10cb8:	00897463          	bleu	s0,s2,10cc0 <_fgets_r+0x68>
   10cbc:	00090413          	mv	s0,s2
   10cc0:	00040613          	mv	a2,s0
   10cc4:	000b0513          	mv	a0,s6
   10cc8:	2c1010ef          	jal	ra,12788 <memchr>
   10ccc:	00040b9b          	sext.w	s7,s0
   10cd0:	00050793          	mv	a5,a0
   10cd4:	00040613          	mv	a2,s0
   10cd8:	000a8513          	mv	a0,s5
   10cdc:	000b0593          	mv	a1,s6
   10ce0:	4179093b          	subw	s2,s2,s7
   10ce4:	0084a703          	lw	a4,8(s1)
   10ce8:	06079e63          	bnez	a5,10d64 <_fgets_r+0x10c>
   10cec:	0004b783          	ld	a5,0(s1)
   10cf0:	008a8ab3          	add	s5,s5,s0
   10cf4:	4177073b          	subw	a4,a4,s7
   10cf8:	00878433          	add	s0,a5,s0
   10cfc:	00e4a423          	sw	a4,8(s1)
   10d00:	0084b023          	sd	s0,0(s1)
   10d04:	36d010ef          	jal	ra,12870 <memcpy>
   10d08:	02090463          	beqz	s2,10d30 <_fgets_r+0xd8>
   10d0c:	0084a403          	lw	s0,8(s1)
   10d10:	fa0410e3          	bnez	s0,10cb0 <_fgets_r+0x58>
   10d14:	00048593          	mv	a1,s1
   10d18:	00098513          	mv	a0,s3
   10d1c:	6c5010ef          	jal	ra,12be0 <__srefill_r>
   10d20:	00051663          	bnez	a0,10d2c <_fgets_r+0xd4>
   10d24:	0084a403          	lw	s0,8(s1)
   10d28:	f89ff06f          	j	10cb0 <_fgets_r+0x58>
   10d2c:	074a8663          	beq	s5,s4,10d98 <_fgets_r+0x140>
   10d30:	000a8023          	sb	zero,0(s5)
   10d34:	000a0513          	mv	a0,s4
   10d38:	04813083          	ld	ra,72(sp)
   10d3c:	04013403          	ld	s0,64(sp)
   10d40:	03813483          	ld	s1,56(sp)
   10d44:	03013903          	ld	s2,48(sp)
   10d48:	02813983          	ld	s3,40(sp)
   10d4c:	02013a03          	ld	s4,32(sp)
   10d50:	01813a83          	ld	s5,24(sp)
   10d54:	01013b03          	ld	s6,16(sp)
   10d58:	00813b83          	ld	s7,8(sp)
   10d5c:	05010113          	addi	sp,sp,80
   10d60:	00008067          	ret
   10d64:	00178793          	addi	a5,a5,1
   10d68:	41678433          	sub	s0,a5,s6
   10d6c:	4087073b          	subw	a4,a4,s0
   10d70:	00e4a423          	sw	a4,8(s1)
   10d74:	00f4b023          	sd	a5,0(s1)
   10d78:	00040613          	mv	a2,s0
   10d7c:	2f5010ef          	jal	ra,12870 <memcpy>
   10d80:	008a8ab3          	add	s5,s5,s0
   10d84:	000a8023          	sb	zero,0(s5)
   10d88:	000a0513          	mv	a0,s4
   10d8c:	fadff06f          	j	10d38 <_fgets_r+0xe0>
   10d90:	35c000ef          	jal	ra,110ec <__sinit>
   10d94:	f11ff06f          	j	10ca4 <_fgets_r+0x4c>
   10d98:	00000513          	li	a0,0
   10d9c:	f9dff06f          	j	10d38 <_fgets_r+0xe0>
   10da0:	00000513          	li	a0,0
   10da4:	00008067          	ret

0000000000010da8 <fgets>:
   10da8:	00060693          	mv	a3,a2
   10dac:	00058613          	mv	a2,a1
   10db0:	00050593          	mv	a1,a0
   10db4:	8101b503          	ld	a0,-2032(gp)
   10db8:	ea1ff06f          	j	10c58 <_fgets_r>

0000000000010dbc <__fp_unlock>:
   10dbc:	00000513          	li	a0,0
   10dc0:	00008067          	ret

0000000000010dc4 <_cleanup_r>:
   10dc4:	000105b7          	lui	a1,0x10
   10dc8:	77058593          	addi	a1,a1,1904 # 10770 <_fclose_r>
   10dcc:	65d0006f          	j	11c28 <_fwalk_reent>

0000000000010dd0 <__sinit.part.1>:
   10dd0:	fc010113          	addi	sp,sp,-64
   10dd4:	000117b7          	lui	a5,0x11
   10dd8:	02113c23          	sd	ra,56(sp)
   10ddc:	02813823          	sd	s0,48(sp)
   10de0:	02913423          	sd	s1,40(sp)
   10de4:	00853403          	ld	s0,8(a0)
   10de8:	03213023          	sd	s2,32(sp)
   10dec:	01313c23          	sd	s3,24(sp)
   10df0:	01413823          	sd	s4,16(sp)
   10df4:	01513423          	sd	s5,8(sp)
   10df8:	01613023          	sd	s6,0(sp)
   10dfc:	dc478793          	addi	a5,a5,-572 # 10dc4 <_cleanup_r>
   10e00:	04f53c23          	sd	a5,88(a0)
   10e04:	53850713          	addi	a4,a0,1336
   10e08:	00300793          	li	a5,3
   10e0c:	52e53823          	sd	a4,1328(a0)
   10e10:	52f52423          	sw	a5,1320(a0)
   10e14:	52053023          	sd	zero,1312(a0)
   10e18:	00400793          	li	a5,4
   10e1c:	00050913          	mv	s2,a0
   10e20:	00f41823          	sh	a5,16(s0)
   10e24:	00800613          	li	a2,8
   10e28:	00000593          	li	a1,0
   10e2c:	00043023          	sd	zero,0(s0)
   10e30:	00042423          	sw	zero,8(s0)
   10e34:	00042623          	sw	zero,12(s0)
   10e38:	0a042623          	sw	zero,172(s0)
   10e3c:	00041923          	sh	zero,18(s0)
   10e40:	00043c23          	sd	zero,24(s0)
   10e44:	02042023          	sw	zero,32(s0)
   10e48:	02042423          	sw	zero,40(s0)
   10e4c:	0a440513          	addi	a0,s0,164
   10e50:	341010ef          	jal	ra,12990 <memset>
   10e54:	00013b37          	lui	s6,0x13
   10e58:	01093483          	ld	s1,16(s2)
   10e5c:	00013ab7          	lui	s5,0x13
   10e60:	00013a37          	lui	s4,0x13
   10e64:	000139b7          	lui	s3,0x13
   10e68:	08cb0b13          	addi	s6,s6,140 # 1308c <__sread>
   10e6c:	0f8a8a93          	addi	s5,s5,248 # 130f8 <__swrite>
   10e70:	168a0a13          	addi	s4,s4,360 # 13168 <__sseek>
   10e74:	1d498993          	addi	s3,s3,468 # 131d4 <__sclose>
   10e78:	03643c23          	sd	s6,56(s0)
   10e7c:	05543023          	sd	s5,64(s0)
   10e80:	05443423          	sd	s4,72(s0)
   10e84:	05343823          	sd	s3,80(s0)
   10e88:	02843823          	sd	s0,48(s0)
   10e8c:	00900793          	li	a5,9
   10e90:	00f49823          	sh	a5,16(s1)
   10e94:	00100793          	li	a5,1
   10e98:	00f49923          	sh	a5,18(s1)
   10e9c:	00800613          	li	a2,8
   10ea0:	00000593          	li	a1,0
   10ea4:	0004b023          	sd	zero,0(s1)
   10ea8:	0004a423          	sw	zero,8(s1)
   10eac:	0004a623          	sw	zero,12(s1)
   10eb0:	0a04a623          	sw	zero,172(s1)
   10eb4:	0004bc23          	sd	zero,24(s1)
   10eb8:	0204a023          	sw	zero,32(s1)
   10ebc:	0204a423          	sw	zero,40(s1)
   10ec0:	0a448513          	addi	a0,s1,164
   10ec4:	2cd010ef          	jal	ra,12990 <memset>
   10ec8:	01893403          	ld	s0,24(s2)
   10ecc:	01200793          	li	a5,18
   10ed0:	0364bc23          	sd	s6,56(s1)
   10ed4:	0554b023          	sd	s5,64(s1)
   10ed8:	0544b423          	sd	s4,72(s1)
   10edc:	0534b823          	sd	s3,80(s1)
   10ee0:	0294b823          	sd	s1,48(s1)
   10ee4:	00f41823          	sh	a5,16(s0)
   10ee8:	00200793          	li	a5,2
   10eec:	00f41923          	sh	a5,18(s0)
   10ef0:	00043023          	sd	zero,0(s0)
   10ef4:	00042423          	sw	zero,8(s0)
   10ef8:	00042623          	sw	zero,12(s0)
   10efc:	0a042623          	sw	zero,172(s0)
   10f00:	00043c23          	sd	zero,24(s0)
   10f04:	02042023          	sw	zero,32(s0)
   10f08:	02042423          	sw	zero,40(s0)
   10f0c:	0a440513          	addi	a0,s0,164
   10f10:	00800613          	li	a2,8
   10f14:	00000593          	li	a1,0
   10f18:	279010ef          	jal	ra,12990 <memset>
   10f1c:	03813083          	ld	ra,56(sp)
   10f20:	03643c23          	sd	s6,56(s0)
   10f24:	05543023          	sd	s5,64(s0)
   10f28:	05443423          	sd	s4,72(s0)
   10f2c:	05343823          	sd	s3,80(s0)
   10f30:	02843823          	sd	s0,48(s0)
   10f34:	00100793          	li	a5,1
   10f38:	04f92823          	sw	a5,80(s2)
   10f3c:	03013403          	ld	s0,48(sp)
   10f40:	02813483          	ld	s1,40(sp)
   10f44:	02013903          	ld	s2,32(sp)
   10f48:	01813983          	ld	s3,24(sp)
   10f4c:	01013a03          	ld	s4,16(sp)
   10f50:	00813a83          	ld	s5,8(sp)
   10f54:	00013b03          	ld	s6,0(sp)
   10f58:	04010113          	addi	sp,sp,64
   10f5c:	00008067          	ret

0000000000010f60 <__fp_lock>:
   10f60:	00000513          	li	a0,0
   10f64:	00008067          	ret

0000000000010f68 <__sfmoreglue>:
   10f68:	fe010113          	addi	sp,sp,-32
   10f6c:	fff5879b          	addiw	a5,a1,-1
   10f70:	00913423          	sd	s1,8(sp)
   10f74:	0b000493          	li	s1,176
   10f78:	029784b3          	mul	s1,a5,s1
   10f7c:	01213023          	sd	s2,0(sp)
   10f80:	00058913          	mv	s2,a1
   10f84:	00813823          	sd	s0,16(sp)
   10f88:	00113c23          	sd	ra,24(sp)
   10f8c:	0c848593          	addi	a1,s1,200
   10f90:	088010ef          	jal	ra,12018 <_malloc_r>
   10f94:	00050413          	mv	s0,a0
   10f98:	02050063          	beqz	a0,10fb8 <__sfmoreglue+0x50>
   10f9c:	01850513          	addi	a0,a0,24
   10fa0:	00043023          	sd	zero,0(s0)
   10fa4:	01242423          	sw	s2,8(s0)
   10fa8:	00a43823          	sd	a0,16(s0)
   10fac:	0b048613          	addi	a2,s1,176
   10fb0:	00000593          	li	a1,0
   10fb4:	1dd010ef          	jal	ra,12990 <memset>
   10fb8:	01813083          	ld	ra,24(sp)
   10fbc:	00040513          	mv	a0,s0
   10fc0:	00813483          	ld	s1,8(sp)
   10fc4:	01013403          	ld	s0,16(sp)
   10fc8:	00013903          	ld	s2,0(sp)
   10fcc:	02010113          	addi	sp,sp,32
   10fd0:	00008067          	ret

0000000000010fd4 <__sfp>:
   10fd4:	fd010113          	addi	sp,sp,-48
   10fd8:	01213823          	sd	s2,16(sp)
   10fdc:	8081b903          	ld	s2,-2040(gp)
   10fe0:	01313423          	sd	s3,8(sp)
   10fe4:	02113423          	sd	ra,40(sp)
   10fe8:	05092783          	lw	a5,80(s2)
   10fec:	02813023          	sd	s0,32(sp)
   10ff0:	00913c23          	sd	s1,24(sp)
   10ff4:	00050993          	mv	s3,a0
   10ff8:	00079663          	bnez	a5,11004 <__sfp+0x30>
   10ffc:	00090513          	mv	a0,s2
   11000:	dd1ff0ef          	jal	ra,10dd0 <__sinit.part.1>
   11004:	52090913          	addi	s2,s2,1312
   11008:	fff00493          	li	s1,-1
   1100c:	00892783          	lw	a5,8(s2)
   11010:	01093403          	ld	s0,16(s2)
   11014:	fff7879b          	addiw	a5,a5,-1
   11018:	0007da63          	bgez	a5,1102c <__sfp+0x58>
   1101c:	0840006f          	j	110a0 <__sfp+0xcc>
   11020:	fff7879b          	addiw	a5,a5,-1
   11024:	0b040413          	addi	s0,s0,176
   11028:	06978c63          	beq	a5,s1,110a0 <__sfp+0xcc>
   1102c:	01041703          	lh	a4,16(s0)
   11030:	fe0718e3          	bnez	a4,11020 <__sfp+0x4c>
   11034:	fff00793          	li	a5,-1
   11038:	00f41923          	sh	a5,18(s0)
   1103c:	00100793          	li	a5,1
   11040:	00f41823          	sh	a5,16(s0)
   11044:	0a042623          	sw	zero,172(s0)
   11048:	00043023          	sd	zero,0(s0)
   1104c:	00042623          	sw	zero,12(s0)
   11050:	00042423          	sw	zero,8(s0)
   11054:	00043c23          	sd	zero,24(s0)
   11058:	02042023          	sw	zero,32(s0)
   1105c:	02042423          	sw	zero,40(s0)
   11060:	00800613          	li	a2,8
   11064:	00000593          	li	a1,0
   11068:	0a440513          	addi	a0,s0,164
   1106c:	125010ef          	jal	ra,12990 <memset>
   11070:	00040513          	mv	a0,s0
   11074:	04043c23          	sd	zero,88(s0)
   11078:	06042023          	sw	zero,96(s0)
   1107c:	06043c23          	sd	zero,120(s0)
   11080:	08042023          	sw	zero,128(s0)
   11084:	02813083          	ld	ra,40(sp)
   11088:	02013403          	ld	s0,32(sp)
   1108c:	01813483          	ld	s1,24(sp)
   11090:	01013903          	ld	s2,16(sp)
   11094:	00813983          	ld	s3,8(sp)
   11098:	03010113          	addi	sp,sp,48
   1109c:	00008067          	ret
   110a0:	00093783          	ld	a5,0(s2)
   110a4:	00078663          	beqz	a5,110b0 <__sfp+0xdc>
   110a8:	00078913          	mv	s2,a5
   110ac:	f61ff06f          	j	1100c <__sfp+0x38>
   110b0:	00400593          	li	a1,4
   110b4:	00098513          	mv	a0,s3
   110b8:	eb1ff0ef          	jal	ra,10f68 <__sfmoreglue>
   110bc:	00a93023          	sd	a0,0(s2)
   110c0:	00050663          	beqz	a0,110cc <__sfp+0xf8>
   110c4:	00050913          	mv	s2,a0
   110c8:	f45ff06f          	j	1100c <__sfp+0x38>
   110cc:	00c00793          	li	a5,12
   110d0:	00f9a023          	sw	a5,0(s3)
   110d4:	00000513          	li	a0,0
   110d8:	fadff06f          	j	11084 <__sfp+0xb0>

00000000000110dc <_cleanup>:
   110dc:	8081b503          	ld	a0,-2040(gp)
   110e0:	000105b7          	lui	a1,0x10
   110e4:	77058593          	addi	a1,a1,1904 # 10770 <_fclose_r>
   110e8:	3410006f          	j	11c28 <_fwalk_reent>

00000000000110ec <__sinit>:
   110ec:	05052783          	lw	a5,80(a0)
   110f0:	00078463          	beqz	a5,110f8 <__sinit+0xc>
   110f4:	00008067          	ret
   110f8:	cd9ff06f          	j	10dd0 <__sinit.part.1>

00000000000110fc <__sfp_lock_acquire>:
   110fc:	00008067          	ret

0000000000011100 <__sfp_lock_release>:
   11100:	00008067          	ret

0000000000011104 <__sinit_lock_acquire>:
   11104:	00008067          	ret

0000000000011108 <__sinit_lock_release>:
   11108:	00008067          	ret

000000000001110c <__fp_lock_all>:
   1110c:	8101b503          	ld	a0,-2032(gp)
   11110:	000115b7          	lui	a1,0x11
   11114:	f6058593          	addi	a1,a1,-160 # 10f60 <__fp_lock>
   11118:	2610006f          	j	11b78 <_fwalk>

000000000001111c <__fp_unlock_all>:
   1111c:	8101b503          	ld	a0,-2032(gp)
   11120:	000115b7          	lui	a1,0x11
   11124:	dbc58593          	addi	a1,a1,-580 # 10dbc <__fp_unlock>
   11128:	2510006f          	j	11b78 <_fwalk>

000000000001112c <__libc_fini_array>:
   1112c:	fe010113          	addi	sp,sp,-32
   11130:	00813823          	sd	s0,16(sp)
   11134:	00913423          	sd	s1,8(sp)
   11138:	0001b437          	lui	s0,0x1b
   1113c:	0001b4b7          	lui	s1,0x1b
   11140:	b7048493          	addi	s1,s1,-1168 # 1ab70 <__init_array_end>
   11144:	b7840413          	addi	s0,s0,-1160 # 1ab78 <__fini_array_end>
   11148:	40940433          	sub	s0,s0,s1
   1114c:	ff840793          	addi	a5,s0,-8
   11150:	00113c23          	sd	ra,24(sp)
   11154:	40345413          	srai	s0,s0,0x3
   11158:	009784b3          	add	s1,a5,s1
   1115c:	00040c63          	beqz	s0,11174 <__libc_fini_array+0x48>
   11160:	0004b783          	ld	a5,0(s1)
   11164:	fff40413          	addi	s0,s0,-1
   11168:	ff848493          	addi	s1,s1,-8
   1116c:	000780e7          	jalr	a5
   11170:	fe0418e3          	bnez	s0,11160 <__libc_fini_array+0x34>
   11174:	01813083          	ld	ra,24(sp)
   11178:	01013403          	ld	s0,16(sp)
   1117c:	00813483          	ld	s1,8(sp)
   11180:	02010113          	addi	sp,sp,32
   11184:	ec5fe06f          	j	10048 <_fini>

0000000000011188 <_fopen_r>:
   11188:	fc010113          	addi	sp,sp,-64
   1118c:	00060793          	mv	a5,a2
   11190:	01313c23          	sd	s3,24(sp)
   11194:	00c10613          	addi	a2,sp,12
   11198:	00058993          	mv	s3,a1
   1119c:	00078593          	mv	a1,a5
   111a0:	03213023          	sd	s2,32(sp)
   111a4:	02113c23          	sd	ra,56(sp)
   111a8:	02813823          	sd	s0,48(sp)
   111ac:	02913423          	sd	s1,40(sp)
   111b0:	00050913          	mv	s2,a0
   111b4:	730050ef          	jal	ra,168e4 <__sflags>
   111b8:	08050e63          	beqz	a0,11254 <_fopen_r+0xcc>
   111bc:	00050493          	mv	s1,a0
   111c0:	00090513          	mv	a0,s2
   111c4:	e11ff0ef          	jal	ra,10fd4 <__sfp>
   111c8:	00050413          	mv	s0,a0
   111cc:	08050463          	beqz	a0,11254 <_fopen_r+0xcc>
   111d0:	00c12583          	lw	a1,12(sp)
   111d4:	1b600613          	li	a2,438
   111d8:	00098513          	mv	a0,s3
   111dc:	6e1080ef          	jal	ra,1a0bc <open>
   111e0:	06054463          	bltz	a0,11248 <_fopen_r+0xc0>
   111e4:	000137b7          	lui	a5,0x13
   111e8:	08c78793          	addi	a5,a5,140 # 1308c <__sread>
   111ec:	02f43c23          	sd	a5,56(s0)
   111f0:	000137b7          	lui	a5,0x13
   111f4:	0f878793          	addi	a5,a5,248 # 130f8 <__swrite>
   111f8:	04f43023          	sd	a5,64(s0)
   111fc:	000137b7          	lui	a5,0x13
   11200:	16878793          	addi	a5,a5,360 # 13168 <__sseek>
   11204:	04f43423          	sd	a5,72(s0)
   11208:	000137b7          	lui	a5,0x13
   1120c:	1d478793          	addi	a5,a5,468 # 131d4 <__sclose>
   11210:	00941823          	sh	s1,16(s0)
   11214:	00a41923          	sh	a0,18(s0)
   11218:	02843823          	sd	s0,48(s0)
   1121c:	04f43823          	sd	a5,80(s0)
   11220:	1004f493          	andi	s1,s1,256
   11224:	04049a63          	bnez	s1,11278 <_fopen_r+0xf0>
   11228:	03813083          	ld	ra,56(sp)
   1122c:	00040513          	mv	a0,s0
   11230:	02813483          	ld	s1,40(sp)
   11234:	03013403          	ld	s0,48(sp)
   11238:	02013903          	ld	s2,32(sp)
   1123c:	01813983          	ld	s3,24(sp)
   11240:	04010113          	addi	sp,sp,64
   11244:	00008067          	ret
   11248:	eb5ff0ef          	jal	ra,110fc <__sfp_lock_acquire>
   1124c:	00041823          	sh	zero,16(s0)
   11250:	eb1ff0ef          	jal	ra,11100 <__sfp_lock_release>
   11254:	03813083          	ld	ra,56(sp)
   11258:	00000413          	li	s0,0
   1125c:	00040513          	mv	a0,s0
   11260:	02813483          	ld	s1,40(sp)
   11264:	03013403          	ld	s0,48(sp)
   11268:	02013903          	ld	s2,32(sp)
   1126c:	01813983          	ld	s3,24(sp)
   11270:	04010113          	addi	sp,sp,64
   11274:	00008067          	ret
   11278:	00040593          	mv	a1,s0
   1127c:	00090513          	mv	a0,s2
   11280:	00200693          	li	a3,2
   11284:	00000613          	li	a2,0
   11288:	45c000ef          	jal	ra,116e4 <_fseek_r>
   1128c:	03813083          	ld	ra,56(sp)
   11290:	00040513          	mv	a0,s0
   11294:	02813483          	ld	s1,40(sp)
   11298:	03013403          	ld	s0,48(sp)
   1129c:	02013903          	ld	s2,32(sp)
   112a0:	01813983          	ld	s3,24(sp)
   112a4:	04010113          	addi	sp,sp,64
   112a8:	00008067          	ret

00000000000112ac <fopen>:
   112ac:	00058613          	mv	a2,a1
   112b0:	00050593          	mv	a1,a0
   112b4:	8101b503          	ld	a0,-2032(gp)
   112b8:	ed1ff06f          	j	11188 <_fopen_r>

00000000000112bc <_malloc_trim_r>:
   112bc:	fd010113          	addi	sp,sp,-48
   112c0:	01213823          	sd	s2,16(sp)
   112c4:	0001c937          	lui	s2,0x1c
   112c8:	02813023          	sd	s0,32(sp)
   112cc:	00913c23          	sd	s1,24(sp)
   112d0:	00058413          	mv	s0,a1
   112d4:	01313423          	sd	s3,8(sp)
   112d8:	02113423          	sd	ra,40(sp)
   112dc:	00050993          	mv	s3,a0
   112e0:	61890913          	addi	s2,s2,1560 # 1c618 <__malloc_av_>
   112e4:	788010ef          	jal	ra,12a6c <__malloc_lock>
   112e8:	01093703          	ld	a4,16(s2)
   112ec:	000017b7          	lui	a5,0x1
   112f0:	fdf78593          	addi	a1,a5,-33 # fdf <_ftext-0xf021>
   112f4:	00873483          	ld	s1,8(a4)
   112f8:	ffc4f493          	andi	s1,s1,-4
   112fc:	40848433          	sub	s0,s1,s0
   11300:	00b40433          	add	s0,s0,a1
   11304:	00c45413          	srli	s0,s0,0xc
   11308:	fff40413          	addi	s0,s0,-1
   1130c:	00c41413          	slli	s0,s0,0xc
   11310:	00f44c63          	blt	s0,a5,11328 <_malloc_trim_r+0x6c>
   11314:	00000513          	li	a0,0
   11318:	0d8090ef          	jal	ra,1a3f0 <sbrk>
   1131c:	01093783          	ld	a5,16(s2)
   11320:	009787b3          	add	a5,a5,s1
   11324:	02f50663          	beq	a0,a5,11350 <_malloc_trim_r+0x94>
   11328:	00098513          	mv	a0,s3
   1132c:	744010ef          	jal	ra,12a70 <__malloc_unlock>
   11330:	02813083          	ld	ra,40(sp)
   11334:	00000513          	li	a0,0
   11338:	02013403          	ld	s0,32(sp)
   1133c:	01813483          	ld	s1,24(sp)
   11340:	01013903          	ld	s2,16(sp)
   11344:	00813983          	ld	s3,8(sp)
   11348:	03010113          	addi	sp,sp,48
   1134c:	00008067          	ret
   11350:	40800533          	neg	a0,s0
   11354:	09c090ef          	jal	ra,1a3f0 <sbrk>
   11358:	fff00793          	li	a5,-1
   1135c:	04f50463          	beq	a0,a5,113a4 <_malloc_trim_r+0xe8>
   11360:	9081a783          	lw	a5,-1784(gp)
   11364:	01093683          	ld	a3,16(s2)
   11368:	408484b3          	sub	s1,s1,s0
   1136c:	0014e493          	ori	s1,s1,1
   11370:	4087843b          	subw	s0,a5,s0
   11374:	00098513          	mv	a0,s3
   11378:	0096b423          	sd	s1,8(a3)
   1137c:	9081a423          	sw	s0,-1784(gp)
   11380:	6f0010ef          	jal	ra,12a70 <__malloc_unlock>
   11384:	02813083          	ld	ra,40(sp)
   11388:	00100513          	li	a0,1
   1138c:	02013403          	ld	s0,32(sp)
   11390:	01813483          	ld	s1,24(sp)
   11394:	01013903          	ld	s2,16(sp)
   11398:	00813983          	ld	s3,8(sp)
   1139c:	03010113          	addi	sp,sp,48
   113a0:	00008067          	ret
   113a4:	00000513          	li	a0,0
   113a8:	048090ef          	jal	ra,1a3f0 <sbrk>
   113ac:	01093703          	ld	a4,16(s2)
   113b0:	01f00693          	li	a3,31
   113b4:	40e507b3          	sub	a5,a0,a4
   113b8:	f6f6d8e3          	ble	a5,a3,11328 <_malloc_trim_r+0x6c>
   113bc:	8181b683          	ld	a3,-2024(gp)
   113c0:	0017e793          	ori	a5,a5,1
   113c4:	00f73423          	sd	a5,8(a4)
   113c8:	40d50533          	sub	a0,a0,a3
   113cc:	90a1a423          	sw	a0,-1784(gp)
   113d0:	f59ff06f          	j	11328 <_malloc_trim_r+0x6c>

00000000000113d4 <_free_r>:
   113d4:	10058263          	beqz	a1,114d8 <_free_r+0x104>
   113d8:	fe010113          	addi	sp,sp,-32
   113dc:	00813823          	sd	s0,16(sp)
   113e0:	00913423          	sd	s1,8(sp)
   113e4:	00058413          	mv	s0,a1
   113e8:	00050493          	mv	s1,a0
   113ec:	00113c23          	sd	ra,24(sp)
   113f0:	67c010ef          	jal	ra,12a6c <__malloc_lock>
   113f4:	ff843503          	ld	a0,-8(s0)
   113f8:	ff040693          	addi	a3,s0,-16
   113fc:	0001c5b7          	lui	a1,0x1c
   11400:	ffe57793          	andi	a5,a0,-2
   11404:	00f68633          	add	a2,a3,a5
   11408:	61858593          	addi	a1,a1,1560 # 1c618 <__malloc_av_>
   1140c:	00863703          	ld	a4,8(a2)
   11410:	0105b803          	ld	a6,16(a1)
   11414:	ffc77713          	andi	a4,a4,-4
   11418:	17060663          	beq	a2,a6,11584 <_free_r+0x1b0>
   1141c:	00e63423          	sd	a4,8(a2)
   11420:	00157513          	andi	a0,a0,1
   11424:	02051663          	bnez	a0,11450 <_free_r+0x7c>
   11428:	ff043503          	ld	a0,-16(s0)
   1142c:	40a686b3          	sub	a3,a3,a0
   11430:	0106b803          	ld	a6,16(a3)
   11434:	00a787b3          	add	a5,a5,a0
   11438:	0001c537          	lui	a0,0x1c
   1143c:	62850513          	addi	a0,a0,1576 # 1c628 <__malloc_av_+0x10>
   11440:	18a80863          	beq	a6,a0,115d0 <_free_r+0x1fc>
   11444:	0186b503          	ld	a0,24(a3)
   11448:	00a83c23          	sd	a0,24(a6)
   1144c:	01053823          	sd	a6,16(a0)
   11450:	00e60533          	add	a0,a2,a4
   11454:	00853503          	ld	a0,8(a0)
   11458:	00157513          	andi	a0,a0,1
   1145c:	0e050a63          	beqz	a0,11550 <_free_r+0x17c>
   11460:	0017e713          	ori	a4,a5,1
   11464:	00e6b423          	sd	a4,8(a3)
   11468:	00f68733          	add	a4,a3,a5
   1146c:	00f73023          	sd	a5,0(a4)
   11470:	1ff00713          	li	a4,511
   11474:	06f76463          	bltu	a4,a5,114dc <_free_r+0x108>
   11478:	0037d793          	srli	a5,a5,0x3
   1147c:	0007879b          	sext.w	a5,a5
   11480:	0017871b          	addiw	a4,a5,1
   11484:	0017171b          	slliw	a4,a4,0x1
   11488:	00371713          	slli	a4,a4,0x3
   1148c:	0085b603          	ld	a2,8(a1)
   11490:	00e58733          	add	a4,a1,a4
   11494:	00073803          	ld	a6,0(a4)
   11498:	4027d79b          	sraiw	a5,a5,0x2
   1149c:	00100513          	li	a0,1
   114a0:	00f517b3          	sll	a5,a0,a5
   114a4:	00c7e7b3          	or	a5,a5,a2
   114a8:	ff070613          	addi	a2,a4,-16
   114ac:	00c6bc23          	sd	a2,24(a3)
   114b0:	0106b823          	sd	a6,16(a3)
   114b4:	00f5b423          	sd	a5,8(a1)
   114b8:	00d73023          	sd	a3,0(a4)
   114bc:	00d83c23          	sd	a3,24(a6)
   114c0:	00048513          	mv	a0,s1
   114c4:	01813083          	ld	ra,24(sp)
   114c8:	01013403          	ld	s0,16(sp)
   114cc:	00813483          	ld	s1,8(sp)
   114d0:	02010113          	addi	sp,sp,32
   114d4:	59c0106f          	j	12a70 <__malloc_unlock>
   114d8:	00008067          	ret
   114dc:	0097d713          	srli	a4,a5,0x9
   114e0:	00400613          	li	a2,4
   114e4:	12e66263          	bltu	a2,a4,11608 <_free_r+0x234>
   114e8:	0067d713          	srli	a4,a5,0x6
   114ec:	0007071b          	sext.w	a4,a4
   114f0:	0397051b          	addiw	a0,a4,57
   114f4:	0387061b          	addiw	a2,a4,56
   114f8:	0015151b          	slliw	a0,a0,0x1
   114fc:	00351513          	slli	a0,a0,0x3
   11500:	00a58533          	add	a0,a1,a0
   11504:	00053703          	ld	a4,0(a0)
   11508:	ff050513          	addi	a0,a0,-16
   1150c:	10e50c63          	beq	a0,a4,11624 <_free_r+0x250>
   11510:	00873603          	ld	a2,8(a4)
   11514:	ffc67613          	andi	a2,a2,-4
   11518:	00c7f663          	bleu	a2,a5,11524 <_free_r+0x150>
   1151c:	01073703          	ld	a4,16(a4)
   11520:	fee518e3          	bne	a0,a4,11510 <_free_r+0x13c>
   11524:	01873503          	ld	a0,24(a4)
   11528:	00a6bc23          	sd	a0,24(a3)
   1152c:	00e6b823          	sd	a4,16(a3)
   11530:	00d53823          	sd	a3,16(a0)
   11534:	01813083          	ld	ra,24(sp)
   11538:	00048513          	mv	a0,s1
   1153c:	01013403          	ld	s0,16(sp)
   11540:	00813483          	ld	s1,8(sp)
   11544:	00d73c23          	sd	a3,24(a4)
   11548:	02010113          	addi	sp,sp,32
   1154c:	5240106f          	j	12a70 <__malloc_unlock>
   11550:	01063503          	ld	a0,16(a2)
   11554:	00e787b3          	add	a5,a5,a4
   11558:	0001c737          	lui	a4,0x1c
   1155c:	62870713          	addi	a4,a4,1576 # 1c628 <__malloc_av_+0x10>
   11560:	0ee50263          	beq	a0,a4,11644 <_free_r+0x270>
   11564:	01863803          	ld	a6,24(a2)
   11568:	0017e613          	ori	a2,a5,1
   1156c:	00f68733          	add	a4,a3,a5
   11570:	01053c23          	sd	a6,24(a0)
   11574:	00a83823          	sd	a0,16(a6)
   11578:	00c6b423          	sd	a2,8(a3)
   1157c:	00f73023          	sd	a5,0(a4)
   11580:	ef1ff06f          	j	11470 <_free_r+0x9c>
   11584:	00157513          	andi	a0,a0,1
   11588:	00e787b3          	add	a5,a5,a4
   1158c:	02051063          	bnez	a0,115ac <_free_r+0x1d8>
   11590:	ff043503          	ld	a0,-16(s0)
   11594:	40a686b3          	sub	a3,a3,a0
   11598:	0186b703          	ld	a4,24(a3)
   1159c:	0106b603          	ld	a2,16(a3)
   115a0:	00a787b3          	add	a5,a5,a0
   115a4:	00e63c23          	sd	a4,24(a2)
   115a8:	00c73823          	sd	a2,16(a4)
   115ac:	0017e613          	ori	a2,a5,1
   115b0:	8201b703          	ld	a4,-2016(gp)
   115b4:	00c6b423          	sd	a2,8(a3)
   115b8:	00d5b823          	sd	a3,16(a1)
   115bc:	f0e7e2e3          	bltu	a5,a4,114c0 <_free_r+0xec>
   115c0:	8b01b583          	ld	a1,-1872(gp)
   115c4:	00048513          	mv	a0,s1
   115c8:	cf5ff0ef          	jal	ra,112bc <_malloc_trim_r>
   115cc:	ef5ff06f          	j	114c0 <_free_r+0xec>
   115d0:	00e605b3          	add	a1,a2,a4
   115d4:	0085b583          	ld	a1,8(a1)
   115d8:	0015f593          	andi	a1,a1,1
   115dc:	0e059a63          	bnez	a1,116d0 <_free_r+0x2fc>
   115e0:	01063583          	ld	a1,16(a2)
   115e4:	01863603          	ld	a2,24(a2)
   115e8:	00f707b3          	add	a5,a4,a5
   115ec:	0017e713          	ori	a4,a5,1
   115f0:	00c5bc23          	sd	a2,24(a1)
   115f4:	00b63823          	sd	a1,16(a2)
   115f8:	00e6b423          	sd	a4,8(a3)
   115fc:	00f686b3          	add	a3,a3,a5
   11600:	00f6b023          	sd	a5,0(a3)
   11604:	ebdff06f          	j	114c0 <_free_r+0xec>
   11608:	01400613          	li	a2,20
   1160c:	04e66e63          	bltu	a2,a4,11668 <_free_r+0x294>
   11610:	0007071b          	sext.w	a4,a4
   11614:	05c7051b          	addiw	a0,a4,92
   11618:	05b7061b          	addiw	a2,a4,91
   1161c:	0015151b          	slliw	a0,a0,0x1
   11620:	eddff06f          	j	114fc <_free_r+0x128>
   11624:	0085b783          	ld	a5,8(a1)
   11628:	4026571b          	sraiw	a4,a2,0x2
   1162c:	00100613          	li	a2,1
   11630:	00e61733          	sll	a4,a2,a4
   11634:	00f767b3          	or	a5,a4,a5
   11638:	00f5b423          	sd	a5,8(a1)
   1163c:	00050713          	mv	a4,a0
   11640:	ee9ff06f          	j	11528 <_free_r+0x154>
   11644:	02d5b423          	sd	a3,40(a1)
   11648:	02d5b023          	sd	a3,32(a1)
   1164c:	0017e713          	ori	a4,a5,1
   11650:	00a6bc23          	sd	a0,24(a3)
   11654:	00a6b823          	sd	a0,16(a3)
   11658:	00e6b423          	sd	a4,8(a3)
   1165c:	00f686b3          	add	a3,a3,a5
   11660:	00f6b023          	sd	a5,0(a3)
   11664:	e5dff06f          	j	114c0 <_free_r+0xec>
   11668:	05400613          	li	a2,84
   1166c:	00e66e63          	bltu	a2,a4,11688 <_free_r+0x2b4>
   11670:	00c7d713          	srli	a4,a5,0xc
   11674:	0007071b          	sext.w	a4,a4
   11678:	06f7051b          	addiw	a0,a4,111
   1167c:	06e7061b          	addiw	a2,a4,110
   11680:	0015151b          	slliw	a0,a0,0x1
   11684:	e79ff06f          	j	114fc <_free_r+0x128>
   11688:	15400613          	li	a2,340
   1168c:	00e66e63          	bltu	a2,a4,116a8 <_free_r+0x2d4>
   11690:	00f7d713          	srli	a4,a5,0xf
   11694:	0007071b          	sext.w	a4,a4
   11698:	0787051b          	addiw	a0,a4,120
   1169c:	0777061b          	addiw	a2,a4,119
   116a0:	0015151b          	slliw	a0,a0,0x1
   116a4:	e59ff06f          	j	114fc <_free_r+0x128>
   116a8:	55400813          	li	a6,1364
   116ac:	0fe00513          	li	a0,254
   116b0:	07e00613          	li	a2,126
   116b4:	e4e864e3          	bltu	a6,a4,114fc <_free_r+0x128>
   116b8:	0127d713          	srli	a4,a5,0x12
   116bc:	0007071b          	sext.w	a4,a4
   116c0:	07d7051b          	addiw	a0,a4,125
   116c4:	07c7061b          	addiw	a2,a4,124
   116c8:	0015151b          	slliw	a0,a0,0x1
   116cc:	e31ff06f          	j	114fc <_free_r+0x128>
   116d0:	0017e713          	ori	a4,a5,1
   116d4:	00e6b423          	sd	a4,8(a3)
   116d8:	00f686b3          	add	a3,a3,a5
   116dc:	00f6b023          	sd	a5,0(a3)
   116e0:	de1ff06f          	j	114c0 <_free_r+0xec>

00000000000116e4 <_fseek_r>:
   116e4:	0180006f          	j	116fc <_fseeko_r>

00000000000116e8 <fseek>:
   116e8:	00060693          	mv	a3,a2
   116ec:	00058613          	mv	a2,a1
   116f0:	00050593          	mv	a1,a0
   116f4:	8101b503          	ld	a0,-2032(gp)
   116f8:	0040006f          	j	116fc <_fseeko_r>

00000000000116fc <_fseeko_r>:
   116fc:	f3010113          	addi	sp,sp,-208
   11700:	0c813023          	sd	s0,192(sp)
   11704:	0a913c23          	sd	s1,184(sp)
   11708:	0b213823          	sd	s2,176(sp)
   1170c:	0b413023          	sd	s4,160(sp)
   11710:	0c113423          	sd	ra,200(sp)
   11714:	0b313423          	sd	s3,168(sp)
   11718:	09513c23          	sd	s5,152(sp)
   1171c:	09613823          	sd	s6,144(sp)
   11720:	09713423          	sd	s7,136(sp)
   11724:	00050493          	mv	s1,a0
   11728:	00058413          	mv	s0,a1
   1172c:	00060a13          	mv	s4,a2
   11730:	00068913          	mv	s2,a3
   11734:	00050663          	beqz	a0,11740 <_fseeko_r+0x44>
   11738:	05052783          	lw	a5,80(a0)
   1173c:	18078663          	beqz	a5,118c8 <_fseeko_r+0x1cc>
   11740:	01045783          	lhu	a5,16(s0)
   11744:	10800713          	li	a4,264
   11748:	1087f793          	andi	a5,a5,264
   1174c:	18e78863          	beq	a5,a4,118dc <_fseeko_r+0x1e0>
   11750:	04843983          	ld	s3,72(s0)
   11754:	40098063          	beqz	s3,11b54 <_fseeko_r+0x458>
   11758:	00100793          	li	a5,1
   1175c:	10f90e63          	beq	s2,a5,11878 <_fseeko_r+0x17c>
   11760:	00200793          	li	a5,2
   11764:	04f90263          	beq	s2,a5,117a8 <_fseeko_r+0xac>
   11768:	04090063          	beqz	s2,117a8 <_fseeko_r+0xac>
   1176c:	01600793          	li	a5,22
   11770:	00f4a023          	sw	a5,0(s1)
   11774:	fff00a93          	li	s5,-1
   11778:	0c813083          	ld	ra,200(sp)
   1177c:	000a8513          	mv	a0,s5
   11780:	0c013403          	ld	s0,192(sp)
   11784:	0b813483          	ld	s1,184(sp)
   11788:	0b013903          	ld	s2,176(sp)
   1178c:	0a813983          	ld	s3,168(sp)
   11790:	0a013a03          	ld	s4,160(sp)
   11794:	09813a83          	ld	s5,152(sp)
   11798:	09013b03          	ld	s6,144(sp)
   1179c:	08813b83          	ld	s7,136(sp)
   117a0:	0d010113          	addi	sp,sp,208
   117a4:	00008067          	ret
   117a8:	01843783          	ld	a5,24(s0)
   117ac:	00000b93          	li	s7,0
   117b0:	00000a93          	li	s5,0
   117b4:	34078a63          	beqz	a5,11b08 <_fseeko_r+0x40c>
   117b8:	01041683          	lh	a3,16(s0)
   117bc:	000017b7          	lui	a5,0x1
   117c0:	81a7879b          	addiw	a5,a5,-2022
   117c4:	03069713          	slli	a4,a3,0x30
   117c8:	03075713          	srli	a4,a4,0x30
   117cc:	00e7f7b3          	and	a5,a5,a4
   117d0:	02079463          	bnez	a5,117f8 <_fseeko_r+0xfc>
   117d4:	40077713          	andi	a4,a4,1024
   117d8:	12071463          	bnez	a4,11900 <_fseeko_r+0x204>
   117dc:	000137b7          	lui	a5,0x13
   117e0:	16878793          	addi	a5,a5,360 # 13168 <__sseek>
   117e4:	2ef98a63          	beq	s3,a5,11ad8 <_fseeko_r+0x3dc>
   117e8:	000017b7          	lui	a5,0x1
   117ec:	8007879b          	addiw	a5,a5,-2048
   117f0:	00f6e6b3          	or	a3,a3,a5
   117f4:	00d41823          	sh	a3,16(s0)
   117f8:	00040593          	mv	a1,s0
   117fc:	00048513          	mv	a0,s1
   11800:	aecff0ef          	jal	ra,10aec <_fflush_r>
   11804:	00050a93          	mv	s5,a0
   11808:	f60516e3          	bnez	a0,11774 <_fseeko_r+0x78>
   1180c:	03043583          	ld	a1,48(s0)
   11810:	00090693          	mv	a3,s2
   11814:	000a0613          	mv	a2,s4
   11818:	00048513          	mv	a0,s1
   1181c:	000980e7          	jalr	s3
   11820:	fff00793          	li	a5,-1
   11824:	f4f508e3          	beq	a0,a5,11774 <_fseeko_r+0x78>
   11828:	05843583          	ld	a1,88(s0)
   1182c:	00058c63          	beqz	a1,11844 <_fseeko_r+0x148>
   11830:	07440793          	addi	a5,s0,116
   11834:	00f58663          	beq	a1,a5,11840 <_fseeko_r+0x144>
   11838:	00048513          	mv	a0,s1
   1183c:	b99ff0ef          	jal	ra,113d4 <_free_r>
   11840:	04043c23          	sd	zero,88(s0)
   11844:	01045683          	lhu	a3,16(s0)
   11848:	01843703          	ld	a4,24(s0)
   1184c:	fffff7b7          	lui	a5,0xfffff
   11850:	7df7879b          	addiw	a5,a5,2015
   11854:	00f6f7b3          	and	a5,a3,a5
   11858:	00e43023          	sd	a4,0(s0)
   1185c:	00042423          	sw	zero,8(s0)
   11860:	00f41823          	sh	a5,16(s0)
   11864:	00800613          	li	a2,8
   11868:	00000593          	li	a1,0
   1186c:	0a440513          	addi	a0,s0,164
   11870:	120010ef          	jal	ra,12990 <memset>
   11874:	f05ff06f          	j	11778 <_fseeko_r+0x7c>
   11878:	00040593          	mv	a1,s0
   1187c:	00048513          	mv	a0,s1
   11880:	a6cff0ef          	jal	ra,10aec <_fflush_r>
   11884:	01045783          	lhu	a5,16(s0)
   11888:	03379713          	slli	a4,a5,0x33
   1188c:	22075263          	bgez	a4,11ab0 <_fseeko_r+0x3b4>
   11890:	09043a83          	ld	s5,144(s0)
   11894:	0047f713          	andi	a4,a5,4
   11898:	0a071063          	bnez	a4,11938 <_fseeko_r+0x23c>
   1189c:	0087f793          	andi	a5,a5,8
   118a0:	20078463          	beqz	a5,11aa8 <_fseeko_r+0x3ac>
   118a4:	00043703          	ld	a4,0(s0)
   118a8:	01843783          	ld	a5,24(s0)
   118ac:	00070663          	beqz	a4,118b8 <_fseeko_r+0x1bc>
   118b0:	40f70733          	sub	a4,a4,a5
   118b4:	00ea8ab3          	add	s5,s5,a4
   118b8:	015a0a33          	add	s4,s4,s5
   118bc:	00100b93          	li	s7,1
   118c0:	00000913          	li	s2,0
   118c4:	ef1ff06f          	j	117b4 <_fseeko_r+0xb8>
   118c8:	825ff0ef          	jal	ra,110ec <__sinit>
   118cc:	01045783          	lhu	a5,16(s0)
   118d0:	10800713          	li	a4,264
   118d4:	1087f793          	andi	a5,a5,264
   118d8:	e6e79ce3          	bne	a5,a4,11750 <_fseeko_r+0x54>
   118dc:	00040593          	mv	a1,s0
   118e0:	00048513          	mv	a0,s1
   118e4:	a08ff0ef          	jal	ra,10aec <_fflush_r>
   118e8:	e69ff06f          	j	11750 <_fseeko_r+0x54>
   118ec:	01045783          	lhu	a5,16(s0)
   118f0:	40000713          	li	a4,1024
   118f4:	08e42423          	sw	a4,136(s0)
   118f8:	00e7e7b3          	or	a5,a5,a4
   118fc:	00f41823          	sh	a5,16(s0)
   11900:	000a0b13          	mv	s6,s4
   11904:	0c091e63          	bnez	s2,119e0 <_fseeko_r+0x2e4>
   11908:	040b9863          	bnez	s7,11958 <_fseeko_r+0x25c>
   1190c:	01045783          	lhu	a5,16(s0)
   11910:	03379713          	slli	a4,a5,0x33
   11914:	20075263          	bgez	a4,11b18 <_fseeko_r+0x41c>
   11918:	09043503          	ld	a0,144(s0)
   1191c:	00842783          	lw	a5,8(s0)
   11920:	05843583          	ld	a1,88(s0)
   11924:	40f50ab3          	sub	s5,a0,a5
   11928:	20058863          	beqz	a1,11b38 <_fseeko_r+0x43c>
   1192c:	07042603          	lw	a2,112(s0)
   11930:	40ca8ab3          	sub	s5,s5,a2
   11934:	0340006f          	j	11968 <_fseeko_r+0x26c>
   11938:	00842703          	lw	a4,8(s0)
   1193c:	05843783          	ld	a5,88(s0)
   11940:	40ea8ab3          	sub	s5,s5,a4
   11944:	16078263          	beqz	a5,11aa8 <_fseeko_r+0x3ac>
   11948:	07042703          	lw	a4,112(s0)
   1194c:	01843783          	ld	a5,24(s0)
   11950:	40ea8ab3          	sub	s5,s5,a4
   11954:	f65ff06f          	j	118b8 <_fseeko_r+0x1bc>
   11958:	05843583          	ld	a1,88(s0)
   1195c:	00842783          	lw	a5,8(s0)
   11960:	1c058c63          	beqz	a1,11b38 <_fseeko_r+0x43c>
   11964:	07042603          	lw	a2,112(s0)
   11968:	06843703          	ld	a4,104(s0)
   1196c:	01843683          	ld	a3,24(s0)
   11970:	00fa8ab3          	add	s5,s5,a5
   11974:	40d707b3          	sub	a5,a4,a3
   11978:	40fa8ab3          	sub	s5,s5,a5
   1197c:	00c787b3          	add	a5,a5,a2
   11980:	095b6063          	bltu	s6,s5,11a00 <_fseeko_r+0x304>
   11984:	00fa8733          	add	a4,s5,a5
   11988:	06eb7c63          	bleu	a4,s6,11a00 <_fseeko_r+0x304>
   1198c:	415b0abb          	subw	s5,s6,s5
   11990:	000a8713          	mv	a4,s5
   11994:	00e686b3          	add	a3,a3,a4
   11998:	415787bb          	subw	a5,a5,s5
   1199c:	00d43023          	sd	a3,0(s0)
   119a0:	00f42423          	sw	a5,8(s0)
   119a4:	00058c63          	beqz	a1,119bc <_fseeko_r+0x2c0>
   119a8:	07440793          	addi	a5,s0,116
   119ac:	00f58663          	beq	a1,a5,119b8 <_fseeko_r+0x2bc>
   119b0:	00048513          	mv	a0,s1
   119b4:	a21ff0ef          	jal	ra,113d4 <_free_r>
   119b8:	04043c23          	sd	zero,88(s0)
   119bc:	01045783          	lhu	a5,16(s0)
   119c0:	00800613          	li	a2,8
   119c4:	00000593          	li	a1,0
   119c8:	fdf7f793          	andi	a5,a5,-33
   119cc:	00f41823          	sh	a5,16(s0)
   119d0:	0a440513          	addi	a0,s0,164
   119d4:	7bd000ef          	jal	ra,12990 <memset>
   119d8:	00000a93          	li	s5,0
   119dc:	d9dff06f          	j	11778 <_fseeko_r+0x7c>
   119e0:	01241503          	lh	a0,18(s0)
   119e4:	00010593          	mv	a1,sp
   119e8:	73c080ef          	jal	ra,1a124 <fstat>
   119ec:	e00516e3          	bnez	a0,117f8 <_fseeko_r+0xfc>
   119f0:	02813b03          	ld	s6,40(sp)
   119f4:	016a0b33          	add	s6,s4,s6
   119f8:	f60b90e3          	bnez	s7,11958 <_fseeko_r+0x25c>
   119fc:	f11ff06f          	j	1190c <_fseeko_r+0x210>
   11a00:	08842a83          	lw	s5,136(s0)
   11a04:	03043583          	ld	a1,48(s0)
   11a08:	00000693          	li	a3,0
   11a0c:	41500abb          	negw	s5,s5
   11a10:	016afab3          	and	s5,s5,s6
   11a14:	000a8613          	mv	a2,s5
   11a18:	00048513          	mv	a0,s1
   11a1c:	000980e7          	jalr	s3
   11a20:	fff00793          	li	a5,-1
   11a24:	dcf50ae3          	beq	a0,a5,117f8 <_fseeko_r+0xfc>
   11a28:	01843783          	ld	a5,24(s0)
   11a2c:	05843583          	ld	a1,88(s0)
   11a30:	00042423          	sw	zero,8(s0)
   11a34:	00f43023          	sd	a5,0(s0)
   11a38:	00058c63          	beqz	a1,11a50 <_fseeko_r+0x354>
   11a3c:	07440793          	addi	a5,s0,116
   11a40:	00f58663          	beq	a1,a5,11a4c <_fseeko_r+0x350>
   11a44:	00048513          	mv	a0,s1
   11a48:	98dff0ef          	jal	ra,113d4 <_free_r>
   11a4c:	04043c23          	sd	zero,88(s0)
   11a50:	01045783          	lhu	a5,16(s0)
   11a54:	415b0ab3          	sub	s5,s6,s5
   11a58:	fdf7f793          	andi	a5,a5,-33
   11a5c:	00f41823          	sh	a5,16(s0)
   11a60:	020a8863          	beqz	s5,11a90 <_fseeko_r+0x394>
   11a64:	00040593          	mv	a1,s0
   11a68:	00048513          	mv	a0,s1
   11a6c:	174010ef          	jal	ra,12be0 <__srefill_r>
   11a70:	d80514e3          	bnez	a0,117f8 <_fseeko_r+0xfc>
   11a74:	00842783          	lw	a5,8(s0)
   11a78:	d957e0e3          	bltu	a5,s5,117f8 <_fseeko_r+0xfc>
   11a7c:	00043703          	ld	a4,0(s0)
   11a80:	415787bb          	subw	a5,a5,s5
   11a84:	00f42423          	sw	a5,8(s0)
   11a88:	01570ab3          	add	s5,a4,s5
   11a8c:	01543023          	sd	s5,0(s0)
   11a90:	00800613          	li	a2,8
   11a94:	00000593          	li	a1,0
   11a98:	0a440513          	addi	a0,s0,164
   11a9c:	6f5000ef          	jal	ra,12990 <memset>
   11aa0:	00000a93          	li	s5,0
   11aa4:	cd5ff06f          	j	11778 <_fseeko_r+0x7c>
   11aa8:	01843783          	ld	a5,24(s0)
   11aac:	e0dff06f          	j	118b8 <_fseeko_r+0x1bc>
   11ab0:	03043583          	ld	a1,48(s0)
   11ab4:	00090693          	mv	a3,s2
   11ab8:	00000613          	li	a2,0
   11abc:	00048513          	mv	a0,s1
   11ac0:	000980e7          	jalr	s3
   11ac4:	fff00793          	li	a5,-1
   11ac8:	00050a93          	mv	s5,a0
   11acc:	caf504e3          	beq	a0,a5,11774 <_fseeko_r+0x78>
   11ad0:	01045783          	lhu	a5,16(s0)
   11ad4:	dc1ff06f          	j	11894 <_fseeko_r+0x198>
   11ad8:	01241503          	lh	a0,18(s0)
   11adc:	d00546e3          	bltz	a0,117e8 <_fseeko_r+0xec>
   11ae0:	00010593          	mv	a1,sp
   11ae4:	640080ef          	jal	ra,1a124 <fstat>
   11ae8:	00051c63          	bnez	a0,11b00 <_fseeko_r+0x404>
   11aec:	01012703          	lw	a4,16(sp)
   11af0:	0000f7b7          	lui	a5,0xf
   11af4:	00f777b3          	and	a5,a4,a5
   11af8:	00008737          	lui	a4,0x8
   11afc:	dee788e3          	beq	a5,a4,118ec <_fseeko_r+0x1f0>
   11b00:	01041683          	lh	a3,16(s0)
   11b04:	ce5ff06f          	j	117e8 <_fseeko_r+0xec>
   11b08:	00040593          	mv	a1,s0
   11b0c:	00048513          	mv	a0,s1
   11b10:	35c000ef          	jal	ra,11e6c <__smakebuf_r>
   11b14:	ca5ff06f          	j	117b8 <_fseeko_r+0xbc>
   11b18:	03043583          	ld	a1,48(s0)
   11b1c:	00100693          	li	a3,1
   11b20:	00000613          	li	a2,0
   11b24:	00048513          	mv	a0,s1
   11b28:	000980e7          	jalr	s3
   11b2c:	fff00793          	li	a5,-1
   11b30:	def516e3          	bne	a0,a5,1191c <_fseeko_r+0x220>
   11b34:	cc5ff06f          	j	117f8 <_fseeko_r+0xfc>
   11b38:	00043703          	ld	a4,0(s0)
   11b3c:	01843683          	ld	a3,24(s0)
   11b40:	00000593          	li	a1,0
   11b44:	40d70733          	sub	a4,a4,a3
   11b48:	40ea8ab3          	sub	s5,s5,a4
   11b4c:	00f707b3          	add	a5,a4,a5
   11b50:	e31ff06f          	j	11980 <_fseeko_r+0x284>
   11b54:	01d00793          	li	a5,29
   11b58:	00f4a023          	sw	a5,0(s1)
   11b5c:	fff00a93          	li	s5,-1
   11b60:	c19ff06f          	j	11778 <_fseeko_r+0x7c>

0000000000011b64 <fseeko>:
   11b64:	00060693          	mv	a3,a2
   11b68:	00058613          	mv	a2,a1
   11b6c:	00050593          	mv	a1,a0
   11b70:	8101b503          	ld	a0,-2032(gp)
   11b74:	b89ff06f          	j	116fc <_fseeko_r>

0000000000011b78 <_fwalk>:
   11b78:	fc010113          	addi	sp,sp,-64
   11b7c:	01513423          	sd	s5,8(sp)
   11b80:	02113c23          	sd	ra,56(sp)
   11b84:	02813823          	sd	s0,48(sp)
   11b88:	02913423          	sd	s1,40(sp)
   11b8c:	03213023          	sd	s2,32(sp)
   11b90:	01313c23          	sd	s3,24(sp)
   11b94:	01413823          	sd	s4,16(sp)
   11b98:	01613023          	sd	s6,0(sp)
   11b9c:	52050a93          	addi	s5,a0,1312
   11ba0:	080a8063          	beqz	s5,11c20 <_fwalk+0xa8>
   11ba4:	00058b13          	mv	s6,a1
   11ba8:	00000a13          	li	s4,0
   11bac:	00100993          	li	s3,1
   11bb0:	fff00913          	li	s2,-1
   11bb4:	008aa483          	lw	s1,8(s5)
   11bb8:	010ab403          	ld	s0,16(s5)
   11bbc:	fff4849b          	addiw	s1,s1,-1
   11bc0:	0204c663          	bltz	s1,11bec <_fwalk+0x74>
   11bc4:	01045783          	lhu	a5,16(s0)
   11bc8:	fff4849b          	addiw	s1,s1,-1
   11bcc:	00f9fc63          	bleu	a5,s3,11be4 <_fwalk+0x6c>
   11bd0:	01241783          	lh	a5,18(s0)
   11bd4:	00040513          	mv	a0,s0
   11bd8:	01278663          	beq	a5,s2,11be4 <_fwalk+0x6c>
   11bdc:	000b00e7          	jalr	s6
   11be0:	00aa6a33          	or	s4,s4,a0
   11be4:	0b040413          	addi	s0,s0,176
   11be8:	fd249ee3          	bne	s1,s2,11bc4 <_fwalk+0x4c>
   11bec:	000aba83          	ld	s5,0(s5)
   11bf0:	fc0a92e3          	bnez	s5,11bb4 <_fwalk+0x3c>
   11bf4:	03813083          	ld	ra,56(sp)
   11bf8:	000a0513          	mv	a0,s4
   11bfc:	03013403          	ld	s0,48(sp)
   11c00:	02813483          	ld	s1,40(sp)
   11c04:	02013903          	ld	s2,32(sp)
   11c08:	01813983          	ld	s3,24(sp)
   11c0c:	01013a03          	ld	s4,16(sp)
   11c10:	00813a83          	ld	s5,8(sp)
   11c14:	00013b03          	ld	s6,0(sp)
   11c18:	04010113          	addi	sp,sp,64
   11c1c:	00008067          	ret
   11c20:	00000a13          	li	s4,0
   11c24:	fd1ff06f          	j	11bf4 <_fwalk+0x7c>

0000000000011c28 <_fwalk_reent>:
   11c28:	fb010113          	addi	sp,sp,-80
   11c2c:	01613823          	sd	s6,16(sp)
   11c30:	04113423          	sd	ra,72(sp)
   11c34:	04813023          	sd	s0,64(sp)
   11c38:	02913c23          	sd	s1,56(sp)
   11c3c:	03213823          	sd	s2,48(sp)
   11c40:	03313423          	sd	s3,40(sp)
   11c44:	03413023          	sd	s4,32(sp)
   11c48:	01513c23          	sd	s5,24(sp)
   11c4c:	01713423          	sd	s7,8(sp)
   11c50:	52050b13          	addi	s6,a0,1312
   11c54:	080b0663          	beqz	s6,11ce0 <_fwalk_reent+0xb8>
   11c58:	00058b93          	mv	s7,a1
   11c5c:	00050a93          	mv	s5,a0
   11c60:	00000a13          	li	s4,0
   11c64:	00100993          	li	s3,1
   11c68:	fff00913          	li	s2,-1
   11c6c:	008b2483          	lw	s1,8(s6)
   11c70:	010b3403          	ld	s0,16(s6)
   11c74:	fff4849b          	addiw	s1,s1,-1
   11c78:	0204c863          	bltz	s1,11ca8 <_fwalk_reent+0x80>
   11c7c:	01045783          	lhu	a5,16(s0)
   11c80:	fff4849b          	addiw	s1,s1,-1
   11c84:	00f9fe63          	bleu	a5,s3,11ca0 <_fwalk_reent+0x78>
   11c88:	01241783          	lh	a5,18(s0)
   11c8c:	00040593          	mv	a1,s0
   11c90:	000a8513          	mv	a0,s5
   11c94:	01278663          	beq	a5,s2,11ca0 <_fwalk_reent+0x78>
   11c98:	000b80e7          	jalr	s7
   11c9c:	00aa6a33          	or	s4,s4,a0
   11ca0:	0b040413          	addi	s0,s0,176
   11ca4:	fd249ce3          	bne	s1,s2,11c7c <_fwalk_reent+0x54>
   11ca8:	000b3b03          	ld	s6,0(s6)
   11cac:	fc0b10e3          	bnez	s6,11c6c <_fwalk_reent+0x44>
   11cb0:	04813083          	ld	ra,72(sp)
   11cb4:	000a0513          	mv	a0,s4
   11cb8:	04013403          	ld	s0,64(sp)
   11cbc:	03813483          	ld	s1,56(sp)
   11cc0:	03013903          	ld	s2,48(sp)
   11cc4:	02813983          	ld	s3,40(sp)
   11cc8:	02013a03          	ld	s4,32(sp)
   11ccc:	01813a83          	ld	s5,24(sp)
   11cd0:	01013b03          	ld	s6,16(sp)
   11cd4:	00813b83          	ld	s7,8(sp)
   11cd8:	05010113          	addi	sp,sp,80
   11cdc:	00008067          	ret
   11ce0:	00000a13          	li	s4,0
   11ce4:	fcdff06f          	j	11cb0 <_fwalk_reent+0x88>

0000000000011ce8 <_fwrite_r>:
   11ce8:	f9010113          	addi	sp,sp,-112
   11cec:	04913c23          	sd	s1,88(sp)
   11cf0:	02c684b3          	mul	s1,a3,a2
   11cf4:	01810793          	addi	a5,sp,24
   11cf8:	02f13423          	sd	a5,40(sp)
   11cfc:	00100793          	li	a5,1
   11d00:	06813023          	sd	s0,96(sp)
   11d04:	05213823          	sd	s2,80(sp)
   11d08:	05313423          	sd	s3,72(sp)
   11d0c:	06113423          	sd	ra,104(sp)
   11d10:	00b13c23          	sd	a1,24(sp)
   11d14:	02f12823          	sw	a5,48(sp)
   11d18:	02913023          	sd	s1,32(sp)
   11d1c:	02913c23          	sd	s1,56(sp)
   11d20:	00060993          	mv	s3,a2
   11d24:	00068413          	mv	s0,a3
   11d28:	00050913          	mv	s2,a0
   11d2c:	00050663          	beqz	a0,11d38 <_fwrite_r+0x50>
   11d30:	05052783          	lw	a5,80(a0)
   11d34:	06078863          	beqz	a5,11da4 <_fwrite_r+0xbc>
   11d38:	01071683          	lh	a3,16(a4) # 8010 <_ftext-0x7ff0>
   11d3c:	03269793          	slli	a5,a3,0x32
   11d40:	0207c263          	bltz	a5,11d64 <_fwrite_r+0x7c>
   11d44:	0ac72583          	lw	a1,172(a4)
   11d48:	ffffe7b7          	lui	a5,0xffffe
   11d4c:	00002637          	lui	a2,0x2
   11d50:	fff7879b          	addiw	a5,a5,-1
   11d54:	00c6e6b3          	or	a3,a3,a2
   11d58:	00f5f7b3          	and	a5,a1,a5
   11d5c:	00d71823          	sh	a3,16(a4)
   11d60:	0af72623          	sw	a5,172(a4)
   11d64:	02810613          	addi	a2,sp,40
   11d68:	00070593          	mv	a1,a4
   11d6c:	00090513          	mv	a0,s2
   11d70:	419040ef          	jal	ra,16988 <__sfvwrite_r>
   11d74:	00050863          	beqz	a0,11d84 <_fwrite_r+0x9c>
   11d78:	03813403          	ld	s0,56(sp)
   11d7c:	40848433          	sub	s0,s1,s0
   11d80:	03345433          	divu	s0,s0,s3
   11d84:	06813083          	ld	ra,104(sp)
   11d88:	00040513          	mv	a0,s0
   11d8c:	05813483          	ld	s1,88(sp)
   11d90:	06013403          	ld	s0,96(sp)
   11d94:	05013903          	ld	s2,80(sp)
   11d98:	04813983          	ld	s3,72(sp)
   11d9c:	07010113          	addi	sp,sp,112
   11da0:	00008067          	ret
   11da4:	00e13423          	sd	a4,8(sp)
   11da8:	b44ff0ef          	jal	ra,110ec <__sinit>
   11dac:	00813703          	ld	a4,8(sp)
   11db0:	f89ff06f          	j	11d38 <_fwrite_r+0x50>

0000000000011db4 <fwrite>:
   11db4:	00068713          	mv	a4,a3
   11db8:	00060693          	mv	a3,a2
   11dbc:	00058613          	mv	a2,a1
   11dc0:	00050593          	mv	a1,a0
   11dc4:	8101b503          	ld	a0,-2032(gp)
   11dc8:	f21ff06f          	j	11ce8 <_fwrite_r>

0000000000011dcc <__libc_init_array>:
   11dcc:	fe010113          	addi	sp,sp,-32
   11dd0:	00813823          	sd	s0,16(sp)
   11dd4:	0001b7b7          	lui	a5,0x1b
   11dd8:	0001b437          	lui	s0,0x1b
   11ddc:	01213023          	sd	s2,0(sp)
   11de0:	b6878793          	addi	a5,a5,-1176 # 1ab68 <_etext>
   11de4:	b6840913          	addi	s2,s0,-1176 # 1ab68 <_etext>
   11de8:	41278933          	sub	s2,a5,s2
   11dec:	00913423          	sd	s1,8(sp)
   11df0:	00113c23          	sd	ra,24(sp)
   11df4:	40395913          	srai	s2,s2,0x3
   11df8:	b6840413          	addi	s0,s0,-1176
   11dfc:	00000493          	li	s1,0
   11e00:	00090c63          	beqz	s2,11e18 <__libc_init_array+0x4c>
   11e04:	00043783          	ld	a5,0(s0)
   11e08:	00148493          	addi	s1,s1,1
   11e0c:	00840413          	addi	s0,s0,8
   11e10:	000780e7          	jalr	a5
   11e14:	fe9918e3          	bne	s2,s1,11e04 <__libc_init_array+0x38>
   11e18:	a30fe0ef          	jal	ra,10048 <_fini>
   11e1c:	0001b437          	lui	s0,0x1b
   11e20:	0001b7b7          	lui	a5,0x1b
   11e24:	b6840913          	addi	s2,s0,-1176 # 1ab68 <_etext>
   11e28:	b7078793          	addi	a5,a5,-1168 # 1ab70 <__init_array_end>
   11e2c:	41278933          	sub	s2,a5,s2
   11e30:	40395913          	srai	s2,s2,0x3
   11e34:	b6840413          	addi	s0,s0,-1176
   11e38:	00000493          	li	s1,0
   11e3c:	00090c63          	beqz	s2,11e54 <__libc_init_array+0x88>
   11e40:	00043783          	ld	a5,0(s0)
   11e44:	00148493          	addi	s1,s1,1
   11e48:	00840413          	addi	s0,s0,8
   11e4c:	000780e7          	jalr	a5
   11e50:	fe9918e3          	bne	s2,s1,11e40 <__libc_init_array+0x74>
   11e54:	01813083          	ld	ra,24(sp)
   11e58:	01013403          	ld	s0,16(sp)
   11e5c:	00813483          	ld	s1,8(sp)
   11e60:	00013903          	ld	s2,0(sp)
   11e64:	02010113          	addi	sp,sp,32
   11e68:	00008067          	ret

0000000000011e6c <__smakebuf_r>:
   11e6c:	01059783          	lh	a5,16(a1)
   11e70:	f5010113          	addi	sp,sp,-176
   11e74:	08913c23          	sd	s1,152(sp)
   11e78:	03079493          	slli	s1,a5,0x30
   11e7c:	0304d493          	srli	s1,s1,0x30
   11e80:	0a113423          	sd	ra,168(sp)
   11e84:	0a813023          	sd	s0,160(sp)
   11e88:	09213823          	sd	s2,144(sp)
   11e8c:	09313423          	sd	s3,136(sp)
   11e90:	0024f713          	andi	a4,s1,2
   11e94:	0e071063          	bnez	a4,11f74 <__smakebuf_r+0x108>
   11e98:	00050913          	mv	s2,a0
   11e9c:	01259503          	lh	a0,18(a1)
   11ea0:	00058413          	mv	s0,a1
   11ea4:	04054c63          	bltz	a0,11efc <__smakebuf_r+0x90>
   11ea8:	00010593          	mv	a1,sp
   11eac:	278080ef          	jal	ra,1a124 <fstat>
   11eb0:	04054063          	bltz	a0,11ef0 <__smakebuf_r+0x84>
   11eb4:	01012703          	lw	a4,16(sp)
   11eb8:	0000f7b7          	lui	a5,0xf
   11ebc:	ffffe9b7          	lui	s3,0xffffe
   11ec0:	00f777b3          	and	a5,a4,a5
   11ec4:	013789bb          	addw	s3,a5,s3
   11ec8:	00008737          	lui	a4,0x8
   11ecc:	0019b993          	seqz	s3,s3
   11ed0:	0ce78a63          	beq	a5,a4,11fa4 <__smakebuf_r+0x138>
   11ed4:	01045703          	lhu	a4,16(s0)
   11ed8:	000017b7          	lui	a5,0x1
   11edc:	8007879b          	addiw	a5,a5,-2048
   11ee0:	00f767b3          	or	a5,a4,a5
   11ee4:	00f41823          	sh	a5,16(s0)
   11ee8:	40000493          	li	s1,1024
   11eec:	0340006f          	j	11f20 <__smakebuf_r+0xb4>
   11ef0:	01041783          	lh	a5,16(s0)
   11ef4:	03079493          	slli	s1,a5,0x30
   11ef8:	0304d493          	srli	s1,s1,0x30
   11efc:	03849493          	slli	s1,s1,0x38
   11f00:	00001737          	lui	a4,0x1
   11f04:	43f4d493          	srai	s1,s1,0x3f
   11f08:	8007071b          	addiw	a4,a4,-2048
   11f0c:	c404f493          	andi	s1,s1,-960
   11f10:	00e7e7b3          	or	a5,a5,a4
   11f14:	40048493          	addi	s1,s1,1024
   11f18:	00f41823          	sh	a5,16(s0)
   11f1c:	00000993          	li	s3,0
   11f20:	00048593          	mv	a1,s1
   11f24:	00090513          	mv	a0,s2
   11f28:	0f0000ef          	jal	ra,12018 <_malloc_r>
   11f2c:	0c050063          	beqz	a0,11fec <__smakebuf_r+0x180>
   11f30:	01045783          	lhu	a5,16(s0)
   11f34:	00011737          	lui	a4,0x11
   11f38:	dc470713          	addi	a4,a4,-572 # 10dc4 <_cleanup_r>
   11f3c:	04e93c23          	sd	a4,88(s2)
   11f40:	0807e793          	ori	a5,a5,128
   11f44:	00f41823          	sh	a5,16(s0)
   11f48:	00a43023          	sd	a0,0(s0)
   11f4c:	00a43c23          	sd	a0,24(s0)
   11f50:	02942023          	sw	s1,32(s0)
   11f54:	06099e63          	bnez	s3,11fd0 <__smakebuf_r+0x164>
   11f58:	0a813083          	ld	ra,168(sp)
   11f5c:	0a013403          	ld	s0,160(sp)
   11f60:	09813483          	ld	s1,152(sp)
   11f64:	09013903          	ld	s2,144(sp)
   11f68:	08813983          	ld	s3,136(sp)
   11f6c:	0b010113          	addi	sp,sp,176
   11f70:	00008067          	ret
   11f74:	0a813083          	ld	ra,168(sp)
   11f78:	07758793          	addi	a5,a1,119
   11f7c:	00f5b023          	sd	a5,0(a1)
   11f80:	00f5bc23          	sd	a5,24(a1)
   11f84:	00100793          	li	a5,1
   11f88:	0a013403          	ld	s0,160(sp)
   11f8c:	09813483          	ld	s1,152(sp)
   11f90:	09013903          	ld	s2,144(sp)
   11f94:	08813983          	ld	s3,136(sp)
   11f98:	02f5a023          	sw	a5,32(a1)
   11f9c:	0b010113          	addi	sp,sp,176
   11fa0:	00008067          	ret
   11fa4:	04843703          	ld	a4,72(s0)
   11fa8:	000137b7          	lui	a5,0x13
   11fac:	16878793          	addi	a5,a5,360 # 13168 <__sseek>
   11fb0:	f2f712e3          	bne	a4,a5,11ed4 <__smakebuf_r+0x68>
   11fb4:	01045783          	lhu	a5,16(s0)
   11fb8:	40000713          	li	a4,1024
   11fbc:	08e42423          	sw	a4,136(s0)
   11fc0:	00e7e7b3          	or	a5,a5,a4
   11fc4:	00f41823          	sh	a5,16(s0)
   11fc8:	40000493          	li	s1,1024
   11fcc:	f55ff06f          	j	11f20 <__smakebuf_r+0xb4>
   11fd0:	01241503          	lh	a0,18(s0)
   11fd4:	2dc080ef          	jal	ra,1a2b0 <isatty>
   11fd8:	f80500e3          	beqz	a0,11f58 <__smakebuf_r+0xec>
   11fdc:	01045783          	lhu	a5,16(s0)
   11fe0:	0017e793          	ori	a5,a5,1
   11fe4:	00f41823          	sh	a5,16(s0)
   11fe8:	f71ff06f          	j	11f58 <__smakebuf_r+0xec>
   11fec:	01041783          	lh	a5,16(s0)
   11ff0:	2007f713          	andi	a4,a5,512
   11ff4:	f60712e3          	bnez	a4,11f58 <__smakebuf_r+0xec>
   11ff8:	0027e793          	ori	a5,a5,2
   11ffc:	07740713          	addi	a4,s0,119
   12000:	00f41823          	sh	a5,16(s0)
   12004:	00100793          	li	a5,1
   12008:	00e43023          	sd	a4,0(s0)
   1200c:	00e43c23          	sd	a4,24(s0)
   12010:	02f42023          	sw	a5,32(s0)
   12014:	f45ff06f          	j	11f58 <__smakebuf_r+0xec>

0000000000012018 <_malloc_r>:
   12018:	fa010113          	addi	sp,sp,-96
   1201c:	04913423          	sd	s1,72(sp)
   12020:	03313c23          	sd	s3,56(sp)
   12024:	04113c23          	sd	ra,88(sp)
   12028:	04813823          	sd	s0,80(sp)
   1202c:	05213023          	sd	s2,64(sp)
   12030:	03413823          	sd	s4,48(sp)
   12034:	03513423          	sd	s5,40(sp)
   12038:	03613023          	sd	s6,32(sp)
   1203c:	01713c23          	sd	s7,24(sp)
   12040:	01813823          	sd	s8,16(sp)
   12044:	01913423          	sd	s9,8(sp)
   12048:	01758493          	addi	s1,a1,23
   1204c:	02e00793          	li	a5,46
   12050:	00050993          	mv	s3,a0
   12054:	1c97fa63          	bleu	s1,a5,12228 <_malloc_r+0x210>
   12058:	800007b7          	lui	a5,0x80000
   1205c:	ff04f493          	andi	s1,s1,-16
   12060:	fff7c793          	not	a5,a5
   12064:	2497ee63          	bltu	a5,s1,122c0 <_malloc_r+0x2a8>
   12068:	24b4ec63          	bltu	s1,a1,122c0 <_malloc_r+0x2a8>
   1206c:	201000ef          	jal	ra,12a6c <__malloc_lock>
   12070:	1f700793          	li	a5,503
   12074:	7097f063          	bleu	s1,a5,12774 <_malloc_r+0x75c>
   12078:	0094d793          	srli	a5,s1,0x9
   1207c:	08000693          	li	a3,128
   12080:	04000513          	li	a0,64
   12084:	03f00593          	li	a1,63
   12088:	24079463          	bnez	a5,122d0 <_malloc_r+0x2b8>
   1208c:	0001c937          	lui	s2,0x1c
   12090:	61890913          	addi	s2,s2,1560 # 1c618 <__malloc_av_>
   12094:	00369693          	slli	a3,a3,0x3
   12098:	00d906b3          	add	a3,s2,a3
   1209c:	0086b403          	ld	s0,8(a3)
   120a0:	ff068693          	addi	a3,a3,-16
   120a4:	24868663          	beq	a3,s0,122f0 <_malloc_r+0x2d8>
   120a8:	00843783          	ld	a5,8(s0)
   120ac:	01f00613          	li	a2,31
   120b0:	ffc7f793          	andi	a5,a5,-4
   120b4:	40978733          	sub	a4,a5,s1
   120b8:	02e64063          	blt	a2,a4,120d8 <_malloc_r+0xc0>
   120bc:	22075e63          	bgez	a4,122f8 <_malloc_r+0x2e0>
   120c0:	01843403          	ld	s0,24(s0)
   120c4:	22868663          	beq	a3,s0,122f0 <_malloc_r+0x2d8>
   120c8:	00843783          	ld	a5,8(s0)
   120cc:	ffc7f793          	andi	a5,a5,-4
   120d0:	40978733          	sub	a4,a5,s1
   120d4:	fee654e3          	ble	a4,a2,120bc <_malloc_r+0xa4>
   120d8:	00058693          	mv	a3,a1
   120dc:	02093403          	ld	s0,32(s2)
   120e0:	01090813          	addi	a6,s2,16
   120e4:	47040a63          	beq	s0,a6,12558 <_malloc_r+0x540>
   120e8:	00843783          	ld	a5,8(s0)
   120ec:	01f00613          	li	a2,31
   120f0:	ffc7f793          	andi	a5,a5,-4
   120f4:	40978733          	sub	a4,a5,s1
   120f8:	44e64a63          	blt	a2,a4,1254c <_malloc_r+0x534>
   120fc:	03093423          	sd	a6,40(s2)
   12100:	03093023          	sd	a6,32(s2)
   12104:	20075063          	bgez	a4,12304 <_malloc_r+0x2ec>
   12108:	1ff00713          	li	a4,511
   1210c:	3cf76c63          	bltu	a4,a5,124e4 <_malloc_r+0x4cc>
   12110:	0037d793          	srli	a5,a5,0x3
   12114:	0007879b          	sext.w	a5,a5
   12118:	0017861b          	addiw	a2,a5,1
   1211c:	0016161b          	slliw	a2,a2,0x1
   12120:	00361613          	slli	a2,a2,0x3
   12124:	00893703          	ld	a4,8(s2)
   12128:	00c90633          	add	a2,s2,a2
   1212c:	00063503          	ld	a0,0(a2) # 2000 <_ftext-0xe000>
   12130:	4027d79b          	sraiw	a5,a5,0x2
   12134:	00100593          	li	a1,1
   12138:	00f597b3          	sll	a5,a1,a5
   1213c:	00e7e7b3          	or	a5,a5,a4
   12140:	ff060713          	addi	a4,a2,-16
   12144:	00e43c23          	sd	a4,24(s0)
   12148:	00a43823          	sd	a0,16(s0)
   1214c:	00f93423          	sd	a5,8(s2)
   12150:	00863023          	sd	s0,0(a2)
   12154:	00853c23          	sd	s0,24(a0)
   12158:	4026d61b          	sraiw	a2,a3,0x2
   1215c:	00100713          	li	a4,1
   12160:	00c71633          	sll	a2,a4,a2
   12164:	1cc7e063          	bltu	a5,a2,12324 <_malloc_r+0x30c>
   12168:	00f67733          	and	a4,a2,a5
   1216c:	02071463          	bnez	a4,12194 <_malloc_r+0x17c>
   12170:	00161613          	slli	a2,a2,0x1
   12174:	ffc6f693          	andi	a3,a3,-4
   12178:	00f67733          	and	a4,a2,a5
   1217c:	0046869b          	addiw	a3,a3,4
   12180:	00071a63          	bnez	a4,12194 <_malloc_r+0x17c>
   12184:	00161613          	slli	a2,a2,0x1
   12188:	00f67733          	and	a4,a2,a5
   1218c:	0046869b          	addiw	a3,a3,4
   12190:	fe070ae3          	beqz	a4,12184 <_malloc_r+0x16c>
   12194:	01f00513          	li	a0,31
   12198:	0016889b          	addiw	a7,a3,1
   1219c:	0018989b          	slliw	a7,a7,0x1
   121a0:	00389893          	slli	a7,a7,0x3
   121a4:	011908b3          	add	a7,s2,a7
   121a8:	ff088893          	addi	a7,a7,-16
   121ac:	00088593          	mv	a1,a7
   121b0:	00068313          	mv	t1,a3
   121b4:	0185b403          	ld	s0,24(a1)
   121b8:	00859a63          	bne	a1,s0,121cc <_malloc_r+0x1b4>
   121bc:	3a40006f          	j	12560 <_malloc_r+0x548>
   121c0:	3c075263          	bgez	a4,12584 <_malloc_r+0x56c>
   121c4:	01843403          	ld	s0,24(s0)
   121c8:	38858c63          	beq	a1,s0,12560 <_malloc_r+0x548>
   121cc:	00843783          	ld	a5,8(s0)
   121d0:	ffc7f793          	andi	a5,a5,-4
   121d4:	40978733          	sub	a4,a5,s1
   121d8:	fee554e3          	ble	a4,a0,121c0 <_malloc_r+0x1a8>
   121dc:	01843783          	ld	a5,24(s0)
   121e0:	01043683          	ld	a3,16(s0)
   121e4:	0014e613          	ori	a2,s1,1
   121e8:	00c43423          	sd	a2,8(s0)
   121ec:	00f6bc23          	sd	a5,24(a3)
   121f0:	00d7b823          	sd	a3,16(a5) # ffffffff80000010 <_gp+0xffffffff7ffe2940>
   121f4:	009404b3          	add	s1,s0,s1
   121f8:	02993423          	sd	s1,40(s2)
   121fc:	02993023          	sd	s1,32(s2)
   12200:	00176793          	ori	a5,a4,1
   12204:	0104bc23          	sd	a6,24(s1)
   12208:	0104b823          	sd	a6,16(s1)
   1220c:	00f4b423          	sd	a5,8(s1)
   12210:	00e484b3          	add	s1,s1,a4
   12214:	00098513          	mv	a0,s3
   12218:	00e4b023          	sd	a4,0(s1)
   1221c:	055000ef          	jal	ra,12a70 <__malloc_unlock>
   12220:	01040513          	addi	a0,s0,16
   12224:	0680006f          	j	1228c <_malloc_r+0x274>
   12228:	02000493          	li	s1,32
   1222c:	08b4ea63          	bltu	s1,a1,122c0 <_malloc_r+0x2a8>
   12230:	03d000ef          	jal	ra,12a6c <__malloc_lock>
   12234:	00a00793          	li	a5,10
   12238:	00400693          	li	a3,4
   1223c:	0001c937          	lui	s2,0x1c
   12240:	61890913          	addi	s2,s2,1560 # 1c618 <__malloc_av_>
   12244:	00379793          	slli	a5,a5,0x3
   12248:	00f907b3          	add	a5,s2,a5
   1224c:	0087b403          	ld	s0,8(a5)
   12250:	ff078713          	addi	a4,a5,-16
   12254:	32e40063          	beq	s0,a4,12574 <_malloc_r+0x55c>
   12258:	00843783          	ld	a5,8(s0)
   1225c:	01843683          	ld	a3,24(s0)
   12260:	01043603          	ld	a2,16(s0)
   12264:	ffc7f793          	andi	a5,a5,-4
   12268:	00f407b3          	add	a5,s0,a5
   1226c:	0087b703          	ld	a4,8(a5)
   12270:	00d63c23          	sd	a3,24(a2)
   12274:	00c6b823          	sd	a2,16(a3)
   12278:	00176713          	ori	a4,a4,1
   1227c:	00098513          	mv	a0,s3
   12280:	00e7b423          	sd	a4,8(a5)
   12284:	7ec000ef          	jal	ra,12a70 <__malloc_unlock>
   12288:	01040513          	addi	a0,s0,16
   1228c:	05813083          	ld	ra,88(sp)
   12290:	05013403          	ld	s0,80(sp)
   12294:	04813483          	ld	s1,72(sp)
   12298:	04013903          	ld	s2,64(sp)
   1229c:	03813983          	ld	s3,56(sp)
   122a0:	03013a03          	ld	s4,48(sp)
   122a4:	02813a83          	ld	s5,40(sp)
   122a8:	02013b03          	ld	s6,32(sp)
   122ac:	01813b83          	ld	s7,24(sp)
   122b0:	01013c03          	ld	s8,16(sp)
   122b4:	00813c83          	ld	s9,8(sp)
   122b8:	06010113          	addi	sp,sp,96
   122bc:	00008067          	ret
   122c0:	00c00793          	li	a5,12
   122c4:	00f9a023          	sw	a5,0(s3) # ffffffffffffe000 <_gp+0xfffffffffffe0930>
   122c8:	00000513          	li	a0,0
   122cc:	fc1ff06f          	j	1228c <_malloc_r+0x274>
   122d0:	00400713          	li	a4,4
   122d4:	1ef76463          	bltu	a4,a5,124bc <_malloc_r+0x4a4>
   122d8:	0064d593          	srli	a1,s1,0x6
   122dc:	0005859b          	sext.w	a1,a1
   122e0:	0395851b          	addiw	a0,a1,57
   122e4:	0015169b          	slliw	a3,a0,0x1
   122e8:	0385859b          	addiw	a1,a1,56
   122ec:	da1ff06f          	j	1208c <_malloc_r+0x74>
   122f0:	00050693          	mv	a3,a0
   122f4:	de9ff06f          	j	120dc <_malloc_r+0xc4>
   122f8:	01843683          	ld	a3,24(s0)
   122fc:	01043603          	ld	a2,16(s0)
   12300:	f69ff06f          	j	12268 <_malloc_r+0x250>
   12304:	00f407b3          	add	a5,s0,a5
   12308:	0087b703          	ld	a4,8(a5)
   1230c:	00098513          	mv	a0,s3
   12310:	00176713          	ori	a4,a4,1
   12314:	00e7b423          	sd	a4,8(a5)
   12318:	758000ef          	jal	ra,12a70 <__malloc_unlock>
   1231c:	01040513          	addi	a0,s0,16
   12320:	f6dff06f          	j	1228c <_malloc_r+0x274>
   12324:	01093403          	ld	s0,16(s2)
   12328:	00843703          	ld	a4,8(s0)
   1232c:	ffc77b93          	andi	s7,a4,-4
   12330:	009be863          	bltu	s7,s1,12340 <_malloc_r+0x328>
   12334:	409b87b3          	sub	a5,s7,s1
   12338:	01f00713          	li	a4,31
   1233c:	14f74c63          	blt	a4,a5,12494 <_malloc_r+0x47c>
   12340:	8b01b783          	ld	a5,-1872(gp)
   12344:	8181b683          	ld	a3,-2024(gp)
   12348:	fff00713          	li	a4,-1
   1234c:	00f487b3          	add	a5,s1,a5
   12350:	01740a33          	add	s4,s0,s7
   12354:	02078b13          	addi	s6,a5,32
   12358:	00e68c63          	beq	a3,a4,12370 <_malloc_r+0x358>
   1235c:	00001b37          	lui	s6,0x1
   12360:	01fb0b13          	addi	s6,s6,31 # 101f <_ftext-0xefe1>
   12364:	01678b33          	add	s6,a5,s6
   12368:	fffff7b7          	lui	a5,0xfffff
   1236c:	00fb7b33          	and	s6,s6,a5
   12370:	000b0513          	mv	a0,s6
   12374:	07c080ef          	jal	ra,1a3f0 <sbrk>
   12378:	fff00793          	li	a5,-1
   1237c:	00050a93          	mv	s5,a0
   12380:	26f50263          	beq	a0,a5,125e4 <_malloc_r+0x5cc>
   12384:	25456e63          	bltu	a0,s4,125e0 <_malloc_r+0x5c8>
   12388:	90818c13          	addi	s8,gp,-1784
   1238c:	000c2783          	lw	a5,0(s8)
   12390:	00fb07bb          	addw	a5,s6,a5
   12394:	00fc2023          	sw	a5,0(s8)
   12398:	355a0463          	beq	s4,s5,126e0 <_malloc_r+0x6c8>
   1239c:	8181b683          	ld	a3,-2024(gp)
   123a0:	fff00713          	li	a4,-1
   123a4:	36e68263          	beq	a3,a4,12708 <_malloc_r+0x6f0>
   123a8:	414a8a33          	sub	s4,s5,s4
   123ac:	00fa07bb          	addw	a5,s4,a5
   123b0:	00fc2023          	sw	a5,0(s8)
   123b4:	00faf713          	andi	a4,s5,15
   123b8:	000017b7          	lui	a5,0x1
   123bc:	00070a63          	beqz	a4,123d0 <_malloc_r+0x3b8>
   123c0:	40ea8ab3          	sub	s5,s5,a4
   123c4:	01078a13          	addi	s4,a5,16 # 1010 <_ftext-0xeff0>
   123c8:	010a8a93          	addi	s5,s5,16
   123cc:	40ea07b3          	sub	a5,s4,a4
   123d0:	00001a37          	lui	s4,0x1
   123d4:	fffa0a13          	addi	s4,s4,-1 # fff <_ftext-0xf001>
   123d8:	016a8b33          	add	s6,s5,s6
   123dc:	014b7b33          	and	s6,s6,s4
   123e0:	41678a33          	sub	s4,a5,s6
   123e4:	000a0513          	mv	a0,s4
   123e8:	008080ef          	jal	ra,1a3f0 <sbrk>
   123ec:	fff00793          	li	a5,-1
   123f0:	30f50663          	beq	a0,a5,126fc <_malloc_r+0x6e4>
   123f4:	41550733          	sub	a4,a0,s5
   123f8:	01470733          	add	a4,a4,s4
   123fc:	00176713          	ori	a4,a4,1
   12400:	000a0a1b          	sext.w	s4,s4
   12404:	000c2783          	lw	a5,0(s8)
   12408:	01593823          	sd	s5,16(s2)
   1240c:	00eab423          	sd	a4,8(s5)
   12410:	00fa07bb          	addw	a5,s4,a5
   12414:	00fc2023          	sw	a5,0(s8)
   12418:	03240c63          	beq	s0,s2,12450 <_malloc_r+0x438>
   1241c:	01f00613          	li	a2,31
   12420:	27767463          	bleu	s7,a2,12688 <_malloc_r+0x670>
   12424:	00843683          	ld	a3,8(s0)
   12428:	fe8b8713          	addi	a4,s7,-24
   1242c:	ff077713          	andi	a4,a4,-16
   12430:	0016f693          	andi	a3,a3,1
   12434:	00e6e6b3          	or	a3,a3,a4
   12438:	00d43423          	sd	a3,8(s0)
   1243c:	00900593          	li	a1,9
   12440:	00e406b3          	add	a3,s0,a4
   12444:	00b6b423          	sd	a1,8(a3)
   12448:	00b6b823          	sd	a1,16(a3)
   1244c:	2ce66263          	bltu	a2,a4,12710 <_malloc_r+0x6f8>
   12450:	8a81b683          	ld	a3,-1880(gp)
   12454:	00f6f463          	bleu	a5,a3,1245c <_malloc_r+0x444>
   12458:	8af1b423          	sd	a5,-1880(gp)
   1245c:	8a01b683          	ld	a3,-1888(gp)
   12460:	01093403          	ld	s0,16(s2)
   12464:	00f6f463          	bleu	a5,a3,1246c <_malloc_r+0x454>
   12468:	8af1b023          	sd	a5,-1888(gp)
   1246c:	00843703          	ld	a4,8(s0)
   12470:	ffc77713          	andi	a4,a4,-4
   12474:	409707b3          	sub	a5,a4,s1
   12478:	00976663          	bltu	a4,s1,12484 <_malloc_r+0x46c>
   1247c:	01f00713          	li	a4,31
   12480:	00f74a63          	blt	a4,a5,12494 <_malloc_r+0x47c>
   12484:	00098513          	mv	a0,s3
   12488:	5e8000ef          	jal	ra,12a70 <__malloc_unlock>
   1248c:	00000513          	li	a0,0
   12490:	dfdff06f          	j	1228c <_malloc_r+0x274>
   12494:	0014e713          	ori	a4,s1,1
   12498:	00e43423          	sd	a4,8(s0)
   1249c:	009404b3          	add	s1,s0,s1
   124a0:	00993823          	sd	s1,16(s2)
   124a4:	0017e793          	ori	a5,a5,1
   124a8:	00098513          	mv	a0,s3
   124ac:	00f4b423          	sd	a5,8(s1)
   124b0:	5c0000ef          	jal	ra,12a70 <__malloc_unlock>
   124b4:	01040513          	addi	a0,s0,16
   124b8:	dd5ff06f          	j	1228c <_malloc_r+0x274>
   124bc:	01400713          	li	a4,20
   124c0:	0ef77a63          	bleu	a5,a4,125b4 <_malloc_r+0x59c>
   124c4:	05400713          	li	a4,84
   124c8:	18f76063          	bltu	a4,a5,12648 <_malloc_r+0x630>
   124cc:	00c4d593          	srli	a1,s1,0xc
   124d0:	0005859b          	sext.w	a1,a1
   124d4:	06f5851b          	addiw	a0,a1,111
   124d8:	0015169b          	slliw	a3,a0,0x1
   124dc:	06e5859b          	addiw	a1,a1,110
   124e0:	badff06f          	j	1208c <_malloc_r+0x74>
   124e4:	0097d713          	srli	a4,a5,0x9
   124e8:	00400613          	li	a2,4
   124ec:	0ce67e63          	bleu	a4,a2,125c8 <_malloc_r+0x5b0>
   124f0:	01400613          	li	a2,20
   124f4:	1ce66663          	bltu	a2,a4,126c0 <_malloc_r+0x6a8>
   124f8:	0007071b          	sext.w	a4,a4
   124fc:	05c7059b          	addiw	a1,a4,92
   12500:	05b7061b          	addiw	a2,a4,91
   12504:	0015959b          	slliw	a1,a1,0x1
   12508:	00359593          	slli	a1,a1,0x3
   1250c:	00b905b3          	add	a1,s2,a1
   12510:	0005b703          	ld	a4,0(a1)
   12514:	ff058593          	addi	a1,a1,-16
   12518:	14e58863          	beq	a1,a4,12668 <_malloc_r+0x650>
   1251c:	00873603          	ld	a2,8(a4)
   12520:	ffc67613          	andi	a2,a2,-4
   12524:	00c7f663          	bleu	a2,a5,12530 <_malloc_r+0x518>
   12528:	01073703          	ld	a4,16(a4)
   1252c:	fee598e3          	bne	a1,a4,1251c <_malloc_r+0x504>
   12530:	01873583          	ld	a1,24(a4)
   12534:	00893783          	ld	a5,8(s2)
   12538:	00b43c23          	sd	a1,24(s0)
   1253c:	00e43823          	sd	a4,16(s0)
   12540:	0085b823          	sd	s0,16(a1)
   12544:	00873c23          	sd	s0,24(a4)
   12548:	c11ff06f          	j	12158 <_malloc_r+0x140>
   1254c:	0014e793          	ori	a5,s1,1
   12550:	00f43423          	sd	a5,8(s0)
   12554:	ca1ff06f          	j	121f4 <_malloc_r+0x1dc>
   12558:	00893783          	ld	a5,8(s2)
   1255c:	bfdff06f          	j	12158 <_malloc_r+0x140>
   12560:	0013031b          	addiw	t1,t1,1
   12564:	00337793          	andi	a5,t1,3
   12568:	01058593          	addi	a1,a1,16
   1256c:	c40794e3          	bnez	a5,121b4 <_malloc_r+0x19c>
   12570:	0900006f          	j	12600 <_malloc_r+0x5e8>
   12574:	0187b403          	ld	s0,24(a5)
   12578:	0026869b          	addiw	a3,a3,2
   1257c:	b68780e3          	beq	a5,s0,120dc <_malloc_r+0xc4>
   12580:	cd9ff06f          	j	12258 <_malloc_r+0x240>
   12584:	00f407b3          	add	a5,s0,a5
   12588:	0087b703          	ld	a4,8(a5)
   1258c:	01843683          	ld	a3,24(s0)
   12590:	01043603          	ld	a2,16(s0)
   12594:	00176713          	ori	a4,a4,1
   12598:	00e7b423          	sd	a4,8(a5)
   1259c:	00d63c23          	sd	a3,24(a2)
   125a0:	00098513          	mv	a0,s3
   125a4:	00c6b823          	sd	a2,16(a3)
   125a8:	4c8000ef          	jal	ra,12a70 <__malloc_unlock>
   125ac:	01040513          	addi	a0,s0,16
   125b0:	cddff06f          	j	1228c <_malloc_r+0x274>
   125b4:	0007879b          	sext.w	a5,a5
   125b8:	05c7851b          	addiw	a0,a5,92
   125bc:	05b7859b          	addiw	a1,a5,91
   125c0:	0015169b          	slliw	a3,a0,0x1
   125c4:	ac9ff06f          	j	1208c <_malloc_r+0x74>
   125c8:	0067d713          	srli	a4,a5,0x6
   125cc:	0007071b          	sext.w	a4,a4
   125d0:	0397059b          	addiw	a1,a4,57
   125d4:	0387061b          	addiw	a2,a4,56
   125d8:	0015959b          	slliw	a1,a1,0x1
   125dc:	f2dff06f          	j	12508 <_malloc_r+0x4f0>
   125e0:	db2404e3          	beq	s0,s2,12388 <_malloc_r+0x370>
   125e4:	01093403          	ld	s0,16(s2)
   125e8:	00843703          	ld	a4,8(s0)
   125ec:	ffc77713          	andi	a4,a4,-4
   125f0:	e85ff06f          	j	12474 <_malloc_r+0x45c>
   125f4:	0108b783          	ld	a5,16(a7)
   125f8:	fff6869b          	addiw	a3,a3,-1
   125fc:	16f89863          	bne	a7,a5,1276c <_malloc_r+0x754>
   12600:	0036f793          	andi	a5,a3,3
   12604:	ff088893          	addi	a7,a7,-16
   12608:	fe0796e3          	bnez	a5,125f4 <_malloc_r+0x5dc>
   1260c:	00893783          	ld	a5,8(s2)
   12610:	fff64713          	not	a4,a2
   12614:	00f777b3          	and	a5,a4,a5
   12618:	00f93423          	sd	a5,8(s2)
   1261c:	00161613          	slli	a2,a2,0x1
   12620:	d0c7e2e3          	bltu	a5,a2,12324 <_malloc_r+0x30c>
   12624:	d00600e3          	beqz	a2,12324 <_malloc_r+0x30c>
   12628:	00f67733          	and	a4,a2,a5
   1262c:	00030693          	mv	a3,t1
   12630:	b60714e3          	bnez	a4,12198 <_malloc_r+0x180>
   12634:	00161613          	slli	a2,a2,0x1
   12638:	00f67733          	and	a4,a2,a5
   1263c:	0046869b          	addiw	a3,a3,4
   12640:	fe070ae3          	beqz	a4,12634 <_malloc_r+0x61c>
   12644:	b55ff06f          	j	12198 <_malloc_r+0x180>
   12648:	15400713          	li	a4,340
   1264c:	04f76463          	bltu	a4,a5,12694 <_malloc_r+0x67c>
   12650:	00f4d593          	srli	a1,s1,0xf
   12654:	0005859b          	sext.w	a1,a1
   12658:	0785851b          	addiw	a0,a1,120
   1265c:	0015169b          	slliw	a3,a0,0x1
   12660:	0775859b          	addiw	a1,a1,119
   12664:	a29ff06f          	j	1208c <_malloc_r+0x74>
   12668:	00893783          	ld	a5,8(s2)
   1266c:	4026571b          	sraiw	a4,a2,0x2
   12670:	00100613          	li	a2,1
   12674:	00e61733          	sll	a4,a2,a4
   12678:	00f767b3          	or	a5,a4,a5
   1267c:	00f93423          	sd	a5,8(s2)
   12680:	00058713          	mv	a4,a1
   12684:	eb5ff06f          	j	12538 <_malloc_r+0x520>
   12688:	00100793          	li	a5,1
   1268c:	00fab423          	sd	a5,8(s5)
   12690:	df5ff06f          	j	12484 <_malloc_r+0x46c>
   12694:	55400713          	li	a4,1364
   12698:	0fe00693          	li	a3,254
   1269c:	07f00513          	li	a0,127
   126a0:	07e00593          	li	a1,126
   126a4:	9ef764e3          	bltu	a4,a5,1208c <_malloc_r+0x74>
   126a8:	0124d593          	srli	a1,s1,0x12
   126ac:	0005859b          	sext.w	a1,a1
   126b0:	07d5851b          	addiw	a0,a1,125
   126b4:	0015169b          	slliw	a3,a0,0x1
   126b8:	07c5859b          	addiw	a1,a1,124
   126bc:	9d1ff06f          	j	1208c <_malloc_r+0x74>
   126c0:	05400613          	li	a2,84
   126c4:	06e66063          	bltu	a2,a4,12724 <_malloc_r+0x70c>
   126c8:	00c7d713          	srli	a4,a5,0xc
   126cc:	0007071b          	sext.w	a4,a4
   126d0:	06f7059b          	addiw	a1,a4,111
   126d4:	06e7061b          	addiw	a2,a4,110
   126d8:	0015959b          	slliw	a1,a1,0x1
   126dc:	e2dff06f          	j	12508 <_malloc_r+0x4f0>
   126e0:	034a1713          	slli	a4,s4,0x34
   126e4:	ca071ce3          	bnez	a4,1239c <_malloc_r+0x384>
   126e8:	01093683          	ld	a3,16(s2)
   126ec:	016b8733          	add	a4,s7,s6
   126f0:	00176713          	ori	a4,a4,1
   126f4:	00e6b423          	sd	a4,8(a3)
   126f8:	d59ff06f          	j	12450 <_malloc_r+0x438>
   126fc:	00100713          	li	a4,1
   12700:	00000a13          	li	s4,0
   12704:	d01ff06f          	j	12404 <_malloc_r+0x3ec>
   12708:	8151bc23          	sd	s5,-2024(gp)
   1270c:	ca9ff06f          	j	123b4 <_malloc_r+0x39c>
   12710:	01040593          	addi	a1,s0,16
   12714:	00098513          	mv	a0,s3
   12718:	cbdfe0ef          	jal	ra,113d4 <_free_r>
   1271c:	000c2783          	lw	a5,0(s8)
   12720:	d31ff06f          	j	12450 <_malloc_r+0x438>
   12724:	15400613          	li	a2,340
   12728:	00e66e63          	bltu	a2,a4,12744 <_malloc_r+0x72c>
   1272c:	00f7d713          	srli	a4,a5,0xf
   12730:	0007071b          	sext.w	a4,a4
   12734:	0787059b          	addiw	a1,a4,120
   12738:	0777061b          	addiw	a2,a4,119
   1273c:	0015959b          	slliw	a1,a1,0x1
   12740:	dc9ff06f          	j	12508 <_malloc_r+0x4f0>
   12744:	55400513          	li	a0,1364
   12748:	0fe00593          	li	a1,254
   1274c:	07e00613          	li	a2,126
   12750:	dae56ce3          	bltu	a0,a4,12508 <_malloc_r+0x4f0>
   12754:	0127d713          	srli	a4,a5,0x12
   12758:	0007071b          	sext.w	a4,a4
   1275c:	07d7059b          	addiw	a1,a4,125
   12760:	07c7061b          	addiw	a2,a4,124
   12764:	0015959b          	slliw	a1,a1,0x1
   12768:	da1ff06f          	j	12508 <_malloc_r+0x4f0>
   1276c:	00893783          	ld	a5,8(s2)
   12770:	eadff06f          	j	1261c <_malloc_r+0x604>
   12774:	0034d693          	srli	a3,s1,0x3
   12778:	0006869b          	sext.w	a3,a3
   1277c:	0016879b          	addiw	a5,a3,1
   12780:	0017979b          	slliw	a5,a5,0x1
   12784:	ab9ff06f          	j	1223c <_malloc_r+0x224>

0000000000012788 <memchr>:
   12788:	00757793          	andi	a5,a0,7
   1278c:	0ff5f813          	andi	a6,a1,255
   12790:	0c078c63          	beqz	a5,12868 <memchr+0xe0>
   12794:	fff60793          	addi	a5,a2,-1
   12798:	06060463          	beqz	a2,12800 <memchr+0x78>
   1279c:	00054703          	lbu	a4,0(a0)
   127a0:	07070263          	beq	a4,a6,12804 <memchr+0x7c>
   127a4:	00080693          	mv	a3,a6
   127a8:	0140006f          	j	127bc <memchr+0x34>
   127ac:	04078a63          	beqz	a5,12800 <memchr+0x78>
   127b0:	00054703          	lbu	a4,0(a0)
   127b4:	fff78793          	addi	a5,a5,-1
   127b8:	04d70663          	beq	a4,a3,12804 <memchr+0x7c>
   127bc:	00150513          	addi	a0,a0,1
   127c0:	00757713          	andi	a4,a0,7
   127c4:	fe0714e3          	bnez	a4,127ac <memchr+0x24>
   127c8:	00700693          	li	a3,7
   127cc:	02f6ee63          	bltu	a3,a5,12808 <memchr+0x80>
   127d0:	02078863          	beqz	a5,12800 <memchr+0x78>
   127d4:	00054703          	lbu	a4,0(a0)
   127d8:	03070663          	beq	a4,a6,12804 <memchr+0x7c>
   127dc:	00150713          	addi	a4,a0,1
   127e0:	00f507b3          	add	a5,a0,a5
   127e4:	00080613          	mv	a2,a6
   127e8:	0100006f          	j	127f8 <memchr+0x70>
   127ec:	00170713          	addi	a4,a4,1
   127f0:	fff74683          	lbu	a3,-1(a4)
   127f4:	00c68863          	beq	a3,a2,12804 <memchr+0x7c>
   127f8:	00070513          	mv	a0,a4
   127fc:	fee798e3          	bne	a5,a4,127ec <memchr+0x64>
   12800:	00000513          	li	a0,0
   12804:	00008067          	ret
   12808:	0ff5f593          	andi	a1,a1,255
   1280c:	0085971b          	slliw	a4,a1,0x8
   12810:	00b765b3          	or	a1,a4,a1
   12814:	00058713          	mv	a4,a1
   12818:	01071613          	slli	a2,a4,0x10
   1281c:	00c76733          	or	a4,a4,a2
   12820:	0001d637          	lui	a2,0x1d
   12824:	f1063303          	ld	t1,-240(a2) # 1cf10 <__wctomb+0x8>
   12828:	0001d637          	lui	a2,0x1d
   1282c:	f1863883          	ld	a7,-232(a2) # 1cf18 <__wctomb+0x10>
   12830:	02071613          	slli	a2,a4,0x20
   12834:	00e66633          	or	a2,a2,a4
   12838:	00068593          	mv	a1,a3
   1283c:	00053703          	ld	a4,0(a0)
   12840:	00e64733          	xor	a4,a2,a4
   12844:	006706b3          	add	a3,a4,t1
   12848:	fff74713          	not	a4,a4
   1284c:	00e6f733          	and	a4,a3,a4
   12850:	01177733          	and	a4,a4,a7
   12854:	f80710e3          	bnez	a4,127d4 <memchr+0x4c>
   12858:	ff878793          	addi	a5,a5,-8
   1285c:	00850513          	addi	a0,a0,8
   12860:	fcf5eee3          	bltu	a1,a5,1283c <memchr+0xb4>
   12864:	f6dff06f          	j	127d0 <memchr+0x48>
   12868:	00060793          	mv	a5,a2
   1286c:	f5dff06f          	j	127c8 <memchr+0x40>

0000000000012870 <memcpy>:
   12870:	00a5c7b3          	xor	a5,a1,a0
   12874:	0077f793          	andi	a5,a5,7
   12878:	00c508b3          	add	a7,a0,a2
   1287c:	0e079263          	bnez	a5,12960 <memcpy+0xf0>
   12880:	00700793          	li	a5,7
   12884:	0ec7fe63          	bleu	a2,a5,12980 <memcpy+0x110>
   12888:	00757793          	andi	a5,a0,7
   1288c:	04079a63          	bnez	a5,128e0 <memcpy+0x70>
   12890:	ff88f813          	andi	a6,a7,-8
   12894:	fc080793          	addi	a5,a6,-64
   12898:	00050713          	mv	a4,a0
   1289c:	06f56663          	bltu	a0,a5,12908 <memcpy+0x98>
   128a0:	00058693          	mv	a3,a1
   128a4:	00070793          	mv	a5,a4
   128a8:	03077863          	bleu	a6,a4,128d8 <memcpy+0x68>
   128ac:	0006b603          	ld	a2,0(a3)
   128b0:	00878793          	addi	a5,a5,8
   128b4:	00868693          	addi	a3,a3,8
   128b8:	fec7bc23          	sd	a2,-8(a5)
   128bc:	ff07e8e3          	bltu	a5,a6,128ac <memcpy+0x3c>
   128c0:	fff74793          	not	a5,a4
   128c4:	01078833          	add	a6,a5,a6
   128c8:	ff887813          	andi	a6,a6,-8
   128cc:	00880813          	addi	a6,a6,8
   128d0:	01070733          	add	a4,a4,a6
   128d4:	010585b3          	add	a1,a1,a6
   128d8:	09176863          	bltu	a4,a7,12968 <memcpy+0xf8>
   128dc:	00008067          	ret
   128e0:	00050713          	mv	a4,a0
   128e4:	0005c683          	lbu	a3,0(a1)
   128e8:	00170713          	addi	a4,a4,1
   128ec:	00777793          	andi	a5,a4,7
   128f0:	fed70fa3          	sb	a3,-1(a4)
   128f4:	00158593          	addi	a1,a1,1
   128f8:	fe0796e3          	bnez	a5,128e4 <memcpy+0x74>
   128fc:	ff88f813          	andi	a6,a7,-8
   12900:	fc080793          	addi	a5,a6,-64
   12904:	f8f77ee3          	bleu	a5,a4,128a0 <memcpy+0x30>
   12908:	0005b383          	ld	t2,0(a1)
   1290c:	0085b283          	ld	t0,8(a1)
   12910:	0105bf83          	ld	t6,16(a1)
   12914:	0185bf03          	ld	t5,24(a1)
   12918:	0205be83          	ld	t4,32(a1)
   1291c:	0285be03          	ld	t3,40(a1)
   12920:	0305b303          	ld	t1,48(a1)
   12924:	0385b603          	ld	a2,56(a1)
   12928:	04858593          	addi	a1,a1,72
   1292c:	04870713          	addi	a4,a4,72
   12930:	ff85b683          	ld	a3,-8(a1)
   12934:	fa773c23          	sd	t2,-72(a4)
   12938:	fc573023          	sd	t0,-64(a4)
   1293c:	fdf73423          	sd	t6,-56(a4)
   12940:	fde73823          	sd	t5,-48(a4)
   12944:	fdd73c23          	sd	t4,-40(a4)
   12948:	ffc73023          	sd	t3,-32(a4)
   1294c:	fe673423          	sd	t1,-24(a4)
   12950:	fec73823          	sd	a2,-16(a4)
   12954:	fed73c23          	sd	a3,-8(a4)
   12958:	faf768e3          	bltu	a4,a5,12908 <memcpy+0x98>
   1295c:	f45ff06f          	j	128a0 <memcpy+0x30>
   12960:	00050713          	mv	a4,a0
   12964:	03157463          	bleu	a7,a0,1298c <memcpy+0x11c>
   12968:	0005c783          	lbu	a5,0(a1)
   1296c:	00170713          	addi	a4,a4,1
   12970:	00158593          	addi	a1,a1,1
   12974:	fef70fa3          	sb	a5,-1(a4)
   12978:	ff1768e3          	bltu	a4,a7,12968 <memcpy+0xf8>
   1297c:	00008067          	ret
   12980:	00050713          	mv	a4,a0
   12984:	ff1562e3          	bltu	a0,a7,12968 <memcpy+0xf8>
   12988:	f55ff06f          	j	128dc <memcpy+0x6c>
   1298c:	00008067          	ret

0000000000012990 <memset>:
   12990:	00f00813          	li	a6,15
   12994:	00050713          	mv	a4,a0
   12998:	02c87a63          	bleu	a2,a6,129cc <memset+0x3c>
   1299c:	00f77793          	andi	a5,a4,15
   129a0:	0a079063          	bnez	a5,12a40 <memset+0xb0>
   129a4:	06059e63          	bnez	a1,12a20 <memset+0x90>
   129a8:	ff067693          	andi	a3,a2,-16
   129ac:	00f67613          	andi	a2,a2,15
   129b0:	00e686b3          	add	a3,a3,a4
   129b4:	00b73023          	sd	a1,0(a4)
   129b8:	00b73423          	sd	a1,8(a4)
   129bc:	01070713          	addi	a4,a4,16
   129c0:	fed76ae3          	bltu	a4,a3,129b4 <memset+0x24>
   129c4:	00061463          	bnez	a2,129cc <memset+0x3c>
   129c8:	00008067          	ret
   129cc:	40c806b3          	sub	a3,a6,a2
   129d0:	00269693          	slli	a3,a3,0x2
   129d4:	00000297          	auipc	t0,0x0
   129d8:	005686b3          	add	a3,a3,t0
   129dc:	00c68067          	jr	12(a3)
   129e0:	00b70723          	sb	a1,14(a4)
   129e4:	00b706a3          	sb	a1,13(a4)
   129e8:	00b70623          	sb	a1,12(a4)
   129ec:	00b705a3          	sb	a1,11(a4)
   129f0:	00b70523          	sb	a1,10(a4)
   129f4:	00b704a3          	sb	a1,9(a4)
   129f8:	00b70423          	sb	a1,8(a4)
   129fc:	00b703a3          	sb	a1,7(a4)
   12a00:	00b70323          	sb	a1,6(a4)
   12a04:	00b702a3          	sb	a1,5(a4)
   12a08:	00b70223          	sb	a1,4(a4)
   12a0c:	00b701a3          	sb	a1,3(a4)
   12a10:	00b70123          	sb	a1,2(a4)
   12a14:	00b700a3          	sb	a1,1(a4)
   12a18:	00b70023          	sb	a1,0(a4)
   12a1c:	00008067          	ret
   12a20:	0ff5f593          	andi	a1,a1,255
   12a24:	00859693          	slli	a3,a1,0x8
   12a28:	00d5e5b3          	or	a1,a1,a3
   12a2c:	01059693          	slli	a3,a1,0x10
   12a30:	00d5e5b3          	or	a1,a1,a3
   12a34:	02059693          	slli	a3,a1,0x20
   12a38:	00d5e5b3          	or	a1,a1,a3
   12a3c:	f6dff06f          	j	129a8 <memset+0x18>
   12a40:	00279693          	slli	a3,a5,0x2
   12a44:	00000297          	auipc	t0,0x0
   12a48:	005686b3          	add	a3,a3,t0
   12a4c:	00008293          	mv	t0,ra
   12a50:	f98680e7          	jalr	-104(a3)
   12a54:	00028093          	mv	ra,t0
   12a58:	ff078793          	addi	a5,a5,-16
   12a5c:	40f70733          	sub	a4,a4,a5
   12a60:	00f60633          	add	a2,a2,a5
   12a64:	f6c874e3          	bleu	a2,a6,129cc <memset+0x3c>
   12a68:	f3dff06f          	j	129a4 <memset+0x14>

0000000000012a6c <__malloc_lock>:
   12a6c:	00008067          	ret

0000000000012a70 <__malloc_unlock>:
   12a70:	00008067          	ret

0000000000012a74 <_printf_r>:
   12a74:	fb010113          	addi	sp,sp,-80
   12a78:	02c13023          	sd	a2,32(sp)
   12a7c:	02d13423          	sd	a3,40(sp)
   12a80:	02f13c23          	sd	a5,56(sp)
   12a84:	02e13823          	sd	a4,48(sp)
   12a88:	05013023          	sd	a6,64(sp)
   12a8c:	05113423          	sd	a7,72(sp)
   12a90:	00058613          	mv	a2,a1
   12a94:	01053583          	ld	a1,16(a0)
   12a98:	02010793          	addi	a5,sp,32
   12a9c:	00078693          	mv	a3,a5
   12aa0:	00113c23          	sd	ra,24(sp)
   12aa4:	00f13423          	sd	a5,8(sp)
   12aa8:	1f5000ef          	jal	ra,1349c <_vfprintf_r>
   12aac:	01813083          	ld	ra,24(sp)
   12ab0:	05010113          	addi	sp,sp,80
   12ab4:	00008067          	ret

0000000000012ab8 <printf>:
   12ab8:	8101b303          	ld	t1,-2032(gp)
   12abc:	fa010113          	addi	sp,sp,-96
   12ac0:	02c13823          	sd	a2,48(sp)
   12ac4:	02d13c23          	sd	a3,56(sp)
   12ac8:	04f13423          	sd	a5,72(sp)
   12acc:	02b13423          	sd	a1,40(sp)
   12ad0:	04e13023          	sd	a4,64(sp)
   12ad4:	05013823          	sd	a6,80(sp)
   12ad8:	05113c23          	sd	a7,88(sp)
   12adc:	01033583          	ld	a1,16(t1)
   12ae0:	02810793          	addi	a5,sp,40
   12ae4:	00050613          	mv	a2,a0
   12ae8:	00078693          	mv	a3,a5
   12aec:	00030513          	mv	a0,t1
   12af0:	00113c23          	sd	ra,24(sp)
   12af4:	00f13423          	sd	a5,8(sp)
   12af8:	1a5000ef          	jal	ra,1349c <_vfprintf_r>
   12afc:	01813083          	ld	ra,24(sp)
   12b00:	06010113          	addi	sp,sp,96
   12b04:	00008067          	ret

0000000000012b08 <_puts_r>:
   12b08:	fa010113          	addi	sp,sp,-96
   12b0c:	04813823          	sd	s0,80(sp)
   12b10:	00050413          	mv	s0,a0
   12b14:	00058513          	mv	a0,a1
   12b18:	04913423          	sd	s1,72(sp)
   12b1c:	04113c23          	sd	ra,88(sp)
   12b20:	00058493          	mv	s1,a1
   12b24:	6b8000ef          	jal	ra,131dc <strlen>
   12b28:	01043583          	ld	a1,16(s0)
   12b2c:	0001b737          	lui	a4,0x1b
   12b30:	ad870713          	addi	a4,a4,-1320 # 1aad8 <zeroes.4137+0x18>
   12b34:	01059683          	lh	a3,16(a1)
   12b38:	02e13823          	sd	a4,48(sp)
   12b3c:	00100713          	li	a4,1
   12b40:	02e13c23          	sd	a4,56(sp)
   12b44:	02010713          	addi	a4,sp,32
   12b48:	00150613          	addi	a2,a0,1
   12b4c:	00e13423          	sd	a4,8(sp)
   12b50:	00200713          	li	a4,2
   12b54:	02913023          	sd	s1,32(sp)
   12b58:	02a13423          	sd	a0,40(sp)
   12b5c:	00c13c23          	sd	a2,24(sp)
   12b60:	00e12823          	sw	a4,16(sp)
   12b64:	03269793          	slli	a5,a3,0x32
   12b68:	0207c263          	bltz	a5,12b8c <_puts_r+0x84>
   12b6c:	0ac5a783          	lw	a5,172(a1)
   12b70:	ffffe737          	lui	a4,0xffffe
   12b74:	00002637          	lui	a2,0x2
   12b78:	fff7071b          	addiw	a4,a4,-1
   12b7c:	00c6e6b3          	or	a3,a3,a2
   12b80:	00e7f733          	and	a4,a5,a4
   12b84:	00d59823          	sh	a3,16(a1)
   12b88:	0ae5a623          	sw	a4,172(a1)
   12b8c:	00810613          	addi	a2,sp,8
   12b90:	00040513          	mv	a0,s0
   12b94:	5f5030ef          	jal	ra,16988 <__sfvwrite_r>
   12b98:	05813083          	ld	ra,88(sp)
   12b9c:	00a03533          	snez	a0,a0
   12ba0:	40a0053b          	negw	a0,a0
   12ba4:	00a56513          	ori	a0,a0,10
   12ba8:	05013403          	ld	s0,80(sp)
   12bac:	04813483          	ld	s1,72(sp)
   12bb0:	06010113          	addi	sp,sp,96
   12bb4:	00008067          	ret

0000000000012bb8 <puts>:
   12bb8:	00050593          	mv	a1,a0
   12bbc:	8101b503          	ld	a0,-2032(gp)
   12bc0:	f49ff06f          	j	12b08 <_puts_r>

0000000000012bc4 <lflush>:
   12bc4:	01055783          	lhu	a5,16(a0)
   12bc8:	00900713          	li	a4,9
   12bcc:	0097f793          	andi	a5,a5,9
   12bd0:	00e78663          	beq	a5,a4,12bdc <lflush+0x18>
   12bd4:	00000513          	li	a0,0
   12bd8:	00008067          	ret
   12bdc:	f6dfd06f          	j	10b48 <fflush>

0000000000012be0 <__srefill_r>:
   12be0:	fd010113          	addi	sp,sp,-48
   12be4:	02813023          	sd	s0,32(sp)
   12be8:	00913c23          	sd	s1,24(sp)
   12bec:	02113423          	sd	ra,40(sp)
   12bf0:	01213823          	sd	s2,16(sp)
   12bf4:	01313423          	sd	s3,8(sp)
   12bf8:	00050493          	mv	s1,a0
   12bfc:	00058413          	mv	s0,a1
   12c00:	00050663          	beqz	a0,12c0c <__srefill_r+0x2c>
   12c04:	05052783          	lw	a5,80(a0)
   12c08:	12078a63          	beqz	a5,12d3c <__srefill_r+0x15c>
   12c0c:	01041783          	lh	a5,16(s0)
   12c10:	03079713          	slli	a4,a5,0x30
   12c14:	03075713          	srli	a4,a4,0x30
   12c18:	03271693          	slli	a3,a4,0x32
   12c1c:	0206ca63          	bltz	a3,12c50 <__srefill_r+0x70>
   12c20:	0ac42683          	lw	a3,172(s0)
   12c24:	00002737          	lui	a4,0x2
   12c28:	00e7e7b3          	or	a5,a5,a4
   12c2c:	ffffe737          	lui	a4,0xffffe
   12c30:	0107979b          	slliw	a5,a5,0x10
   12c34:	fff7071b          	addiw	a4,a4,-1
   12c38:	4107d79b          	sraiw	a5,a5,0x10
   12c3c:	00e6f733          	and	a4,a3,a4
   12c40:	0ae42623          	sw	a4,172(s0)
   12c44:	03079713          	slli	a4,a5,0x30
   12c48:	00f41823          	sh	a5,16(s0)
   12c4c:	03075713          	srli	a4,a4,0x30
   12c50:	00042423          	sw	zero,8(s0)
   12c54:	02077693          	andi	a3,a4,32
   12c58:	1a069c63          	bnez	a3,12e10 <__srefill_r+0x230>
   12c5c:	00477693          	andi	a3,a4,4
   12c60:	08068863          	beqz	a3,12cf0 <__srefill_r+0x110>
   12c64:	05843583          	ld	a1,88(s0)
   12c68:	02058263          	beqz	a1,12c8c <__srefill_r+0xac>
   12c6c:	07440793          	addi	a5,s0,116
   12c70:	00f58663          	beq	a1,a5,12c7c <__srefill_r+0x9c>
   12c74:	00048513          	mv	a0,s1
   12c78:	f5cfe0ef          	jal	ra,113d4 <_free_r>
   12c7c:	07042783          	lw	a5,112(s0)
   12c80:	04043c23          	sd	zero,88(s0)
   12c84:	00f42423          	sw	a5,8(s0)
   12c88:	12079263          	bnez	a5,12dac <__srefill_r+0x1cc>
   12c8c:	01843783          	ld	a5,24(s0)
   12c90:	18078463          	beqz	a5,12e18 <__srefill_r+0x238>
   12c94:	01041983          	lh	s3,16(s0)
   12c98:	03099913          	slli	s2,s3,0x30
   12c9c:	03095913          	srli	s2,s2,0x30
   12ca0:	00397793          	andi	a5,s2,3
   12ca4:	0a079063          	bnez	a5,12d44 <__srefill_r+0x164>
   12ca8:	01843603          	ld	a2,24(s0)
   12cac:	03843783          	ld	a5,56(s0)
   12cb0:	02042683          	lw	a3,32(s0)
   12cb4:	03043583          	ld	a1,48(s0)
   12cb8:	00c43023          	sd	a2,0(s0)
   12cbc:	00048513          	mv	a0,s1
   12cc0:	000780e7          	jalr	a5
   12cc4:	0005079b          	sext.w	a5,a0
   12cc8:	00f42423          	sw	a5,8(s0)
   12ccc:	00000513          	li	a0,0
   12cd0:	02f05e63          	blez	a5,12d0c <__srefill_r+0x12c>
   12cd4:	02813083          	ld	ra,40(sp)
   12cd8:	02013403          	ld	s0,32(sp)
   12cdc:	01813483          	ld	s1,24(sp)
   12ce0:	01013903          	ld	s2,16(sp)
   12ce4:	00813983          	ld	s3,8(sp)
   12ce8:	03010113          	addi	sp,sp,48
   12cec:	00008067          	ret
   12cf0:	01077693          	andi	a3,a4,16
   12cf4:	10068663          	beqz	a3,12e00 <__srefill_r+0x220>
   12cf8:	00877713          	andi	a4,a4,8
   12cfc:	0c071c63          	bnez	a4,12dd4 <__srefill_r+0x1f4>
   12d00:	0047e793          	ori	a5,a5,4
   12d04:	00f41823          	sh	a5,16(s0)
   12d08:	f85ff06f          	j	12c8c <__srefill_r+0xac>
   12d0c:	06079863          	bnez	a5,12d7c <__srefill_r+0x19c>
   12d10:	01045783          	lhu	a5,16(s0)
   12d14:	02813083          	ld	ra,40(sp)
   12d18:	fff00513          	li	a0,-1
   12d1c:	0207e793          	ori	a5,a5,32
   12d20:	00f41823          	sh	a5,16(s0)
   12d24:	01813483          	ld	s1,24(sp)
   12d28:	02013403          	ld	s0,32(sp)
   12d2c:	01013903          	ld	s2,16(sp)
   12d30:	00813983          	ld	s3,8(sp)
   12d34:	03010113          	addi	sp,sp,48
   12d38:	00008067          	ret
   12d3c:	bb0fe0ef          	jal	ra,110ec <__sinit>
   12d40:	ecdff06f          	j	12c0c <__srefill_r+0x2c>
   12d44:	8081b503          	ld	a0,-2040(gp)
   12d48:	000135b7          	lui	a1,0x13
   12d4c:	00100793          	li	a5,1
   12d50:	00f41823          	sh	a5,16(s0)
   12d54:	bc458593          	addi	a1,a1,-1084 # 12bc4 <lflush>
   12d58:	e21fe0ef          	jal	ra,11b78 <_fwalk>
   12d5c:	00997913          	andi	s2,s2,9
   12d60:	01341823          	sh	s3,16(s0)
   12d64:	00900793          	li	a5,9
   12d68:	f4f910e3          	bne	s2,a5,12ca8 <__srefill_r+0xc8>
   12d6c:	00040593          	mv	a1,s0
   12d70:	00048513          	mv	a0,s1
   12d74:	b0dfd0ef          	jal	ra,10880 <__sflush_r>
   12d78:	f31ff06f          	j	12ca8 <__srefill_r+0xc8>
   12d7c:	01045783          	lhu	a5,16(s0)
   12d80:	02813083          	ld	ra,40(sp)
   12d84:	00042423          	sw	zero,8(s0)
   12d88:	0407e793          	ori	a5,a5,64
   12d8c:	fff00513          	li	a0,-1
   12d90:	00f41823          	sh	a5,16(s0)
   12d94:	01813483          	ld	s1,24(sp)
   12d98:	02013403          	ld	s0,32(sp)
   12d9c:	01013903          	ld	s2,16(sp)
   12da0:	00813983          	ld	s3,8(sp)
   12da4:	03010113          	addi	sp,sp,48
   12da8:	00008067          	ret
   12dac:	06843783          	ld	a5,104(s0)
   12db0:	02813083          	ld	ra,40(sp)
   12db4:	00000513          	li	a0,0
   12db8:	00f43023          	sd	a5,0(s0)
   12dbc:	01813483          	ld	s1,24(sp)
   12dc0:	02013403          	ld	s0,32(sp)
   12dc4:	01013903          	ld	s2,16(sp)
   12dc8:	00813983          	ld	s3,8(sp)
   12dcc:	03010113          	addi	sp,sp,48
   12dd0:	00008067          	ret
   12dd4:	00040593          	mv	a1,s0
   12dd8:	00048513          	mv	a0,s1
   12ddc:	d11fd0ef          	jal	ra,10aec <_fflush_r>
   12de0:	02051863          	bnez	a0,12e10 <__srefill_r+0x230>
   12de4:	01045783          	lhu	a5,16(s0)
   12de8:	00042623          	sw	zero,12(s0)
   12dec:	02042423          	sw	zero,40(s0)
   12df0:	ff77f793          	andi	a5,a5,-9
   12df4:	0107979b          	slliw	a5,a5,0x10
   12df8:	4107d79b          	sraiw	a5,a5,0x10
   12dfc:	f05ff06f          	j	12d00 <__srefill_r+0x120>
   12e00:	00900713          	li	a4,9
   12e04:	00e4a023          	sw	a4,0(s1)
   12e08:	0407e793          	ori	a5,a5,64
   12e0c:	00f41823          	sh	a5,16(s0)
   12e10:	fff00513          	li	a0,-1
   12e14:	ec1ff06f          	j	12cd4 <__srefill_r+0xf4>
   12e18:	00040593          	mv	a1,s0
   12e1c:	00048513          	mv	a0,s1
   12e20:	84cff0ef          	jal	ra,11e6c <__smakebuf_r>
   12e24:	e71ff06f          	j	12c94 <__srefill_r+0xb4>

0000000000012e28 <__srget_r>:
   12e28:	fe010113          	addi	sp,sp,-32
   12e2c:	00813823          	sd	s0,16(sp)
   12e30:	00913423          	sd	s1,8(sp)
   12e34:	00113c23          	sd	ra,24(sp)
   12e38:	00050493          	mv	s1,a0
   12e3c:	00058413          	mv	s0,a1
   12e40:	00050663          	beqz	a0,12e4c <__srget_r+0x24>
   12e44:	05052783          	lw	a5,80(a0)
   12e48:	04078663          	beqz	a5,12e94 <__srget_r+0x6c>
   12e4c:	00040593          	mv	a1,s0
   12e50:	00048513          	mv	a0,s1
   12e54:	d8dff0ef          	jal	ra,12be0 <__srefill_r>
   12e58:	fff00793          	li	a5,-1
   12e5c:	02051063          	bnez	a0,12e7c <__srget_r+0x54>
   12e60:	00043703          	ld	a4,0(s0)
   12e64:	00842783          	lw	a5,8(s0)
   12e68:	00170693          	addi	a3,a4,1 # ffffffffffffe001 <_gp+0xfffffffffffe0931>
   12e6c:	fff7879b          	addiw	a5,a5,-1
   12e70:	00f42423          	sw	a5,8(s0)
   12e74:	00d43023          	sd	a3,0(s0)
   12e78:	00074783          	lbu	a5,0(a4)
   12e7c:	01813083          	ld	ra,24(sp)
   12e80:	00078513          	mv	a0,a5
   12e84:	01013403          	ld	s0,16(sp)
   12e88:	00813483          	ld	s1,8(sp)
   12e8c:	02010113          	addi	sp,sp,32
   12e90:	00008067          	ret
   12e94:	a58fe0ef          	jal	ra,110ec <__sinit>
   12e98:	fb5ff06f          	j	12e4c <__srget_r+0x24>

0000000000012e9c <__srget>:
   12e9c:	00050593          	mv	a1,a0
   12ea0:	8101b503          	ld	a0,-2032(gp)
   12ea4:	f85ff06f          	j	12e28 <__srget_r>

0000000000012ea8 <setvbuf>:
   12ea8:	fc010113          	addi	sp,sp,-64
   12eac:	02913423          	sd	s1,40(sp)
   12eb0:	8101b483          	ld	s1,-2032(gp)
   12eb4:	02813823          	sd	s0,48(sp)
   12eb8:	01413823          	sd	s4,16(sp)
   12ebc:	01513423          	sd	s5,8(sp)
   12ec0:	01613023          	sd	s6,0(sp)
   12ec4:	02113c23          	sd	ra,56(sp)
   12ec8:	03213023          	sd	s2,32(sp)
   12ecc:	01313c23          	sd	s3,24(sp)
   12ed0:	00050413          	mv	s0,a0
   12ed4:	00058a93          	mv	s5,a1
   12ed8:	00060a13          	mv	s4,a2
   12edc:	00068b13          	mv	s6,a3
   12ee0:	00048663          	beqz	s1,12eec <setvbuf+0x44>
   12ee4:	0504a783          	lw	a5,80(s1)
   12ee8:	12078663          	beqz	a5,13014 <setvbuf+0x16c>
   12eec:	00200793          	li	a5,2
   12ef0:	fff00513          	li	a0,-1
   12ef4:	0b47e463          	bltu	a5,s4,12f9c <setvbuf+0xf4>
   12ef8:	000b091b          	sext.w	s2,s6
   12efc:	00090993          	mv	s3,s2
   12f00:	08094e63          	bltz	s2,12f9c <setvbuf+0xf4>
   12f04:	00040593          	mv	a1,s0
   12f08:	00048513          	mv	a0,s1
   12f0c:	be1fd0ef          	jal	ra,10aec <_fflush_r>
   12f10:	01041783          	lh	a5,16(s0)
   12f14:	00042423          	sw	zero,8(s0)
   12f18:	02042423          	sw	zero,40(s0)
   12f1c:	0807f713          	andi	a4,a5,128
   12f20:	0a071263          	bnez	a4,12fc4 <setvbuf+0x11c>
   12f24:	f7c7f793          	andi	a5,a5,-132
   12f28:	0107979b          	slliw	a5,a5,0x10
   12f2c:	4107d79b          	sraiw	a5,a5,0x10
   12f30:	00f41823          	sh	a5,16(s0)
   12f34:	00200713          	li	a4,2
   12f38:	0aea0a63          	beq	s4,a4,12fec <setvbuf+0x144>
   12f3c:	0e0a8a63          	beqz	s5,13030 <setvbuf+0x188>
   12f40:	00100713          	li	a4,1
   12f44:	00ea1e63          	bne	s4,a4,12f60 <setvbuf+0xb8>
   12f48:	00e7e7b3          	or	a5,a5,a4
   12f4c:	0107979b          	slliw	a5,a5,0x10
   12f50:	4107d79b          	sraiw	a5,a5,0x10
   12f54:	4120073b          	negw	a4,s2
   12f58:	00f41823          	sh	a5,16(s0)
   12f5c:	02e42423          	sw	a4,40(s0)
   12f60:	00011737          	lui	a4,0x11
   12f64:	dc470713          	addi	a4,a4,-572 # 10dc4 <_cleanup_r>
   12f68:	03079793          	slli	a5,a5,0x30
   12f6c:	04e4bc23          	sd	a4,88(s1)
   12f70:	0307d793          	srli	a5,a5,0x30
   12f74:	01543023          	sd	s5,0(s0)
   12f78:	01543c23          	sd	s5,24(s0)
   12f7c:	03242023          	sw	s2,32(s0)
   12f80:	0087f713          	andi	a4,a5,8
   12f84:	00000513          	li	a0,0
   12f88:	00070a63          	beqz	a4,12f9c <setvbuf+0xf4>
   12f8c:	0037f793          	andi	a5,a5,3
   12f90:	08079863          	bnez	a5,13020 <setvbuf+0x178>
   12f94:	01342623          	sw	s3,12(s0)
   12f98:	00000513          	li	a0,0
   12f9c:	03813083          	ld	ra,56(sp)
   12fa0:	03013403          	ld	s0,48(sp)
   12fa4:	02813483          	ld	s1,40(sp)
   12fa8:	02013903          	ld	s2,32(sp)
   12fac:	01813983          	ld	s3,24(sp)
   12fb0:	01013a03          	ld	s4,16(sp)
   12fb4:	00813a83          	ld	s5,8(sp)
   12fb8:	00013b03          	ld	s6,0(sp)
   12fbc:	04010113          	addi	sp,sp,64
   12fc0:	00008067          	ret
   12fc4:	01843583          	ld	a1,24(s0)
   12fc8:	00048513          	mv	a0,s1
   12fcc:	c08fe0ef          	jal	ra,113d4 <_free_r>
   12fd0:	01041783          	lh	a5,16(s0)
   12fd4:	00200713          	li	a4,2
   12fd8:	f7c7f793          	andi	a5,a5,-132
   12fdc:	0107979b          	slliw	a5,a5,0x10
   12fe0:	4107d79b          	sraiw	a5,a5,0x10
   12fe4:	00f41823          	sh	a5,16(s0)
   12fe8:	f4ea1ae3          	bne	s4,a4,12f3c <setvbuf+0x94>
   12fec:	00000513          	li	a0,0
   12ff0:	0027e793          	ori	a5,a5,2
   12ff4:	07740713          	addi	a4,s0,119
   12ff8:	00f41823          	sh	a5,16(s0)
   12ffc:	00100793          	li	a5,1
   13000:	00042623          	sw	zero,12(s0)
   13004:	00e43023          	sd	a4,0(s0)
   13008:	00e43c23          	sd	a4,24(s0)
   1300c:	02f42023          	sw	a5,32(s0)
   13010:	f8dff06f          	j	12f9c <setvbuf+0xf4>
   13014:	00048513          	mv	a0,s1
   13018:	8d4fe0ef          	jal	ra,110ec <__sinit>
   1301c:	ed1ff06f          	j	12eec <setvbuf+0x44>
   13020:	00000993          	li	s3,0
   13024:	01342623          	sw	s3,12(s0)
   13028:	00000513          	li	a0,0
   1302c:	f71ff06f          	j	12f9c <setvbuf+0xf4>
   13030:	000b1463          	bnez	s6,13038 <setvbuf+0x190>
   13034:	40000b13          	li	s6,1024
   13038:	000b0513          	mv	a0,s6
   1303c:	6c9030ef          	jal	ra,16f04 <malloc>
   13040:	00050a93          	mv	s5,a0
   13044:	02050263          	beqz	a0,13068 <setvbuf+0x1c0>
   13048:	01045783          	lhu	a5,16(s0)
   1304c:	000b091b          	sext.w	s2,s6
   13050:	00090993          	mv	s3,s2
   13054:	0807e793          	ori	a5,a5,128
   13058:	0107979b          	slliw	a5,a5,0x10
   1305c:	4107d79b          	sraiw	a5,a5,0x10
   13060:	00f41823          	sh	a5,16(s0)
   13064:	eddff06f          	j	12f40 <setvbuf+0x98>
   13068:	40000513          	li	a0,1024
   1306c:	699030ef          	jal	ra,16f04 <malloc>
   13070:	00050a93          	mv	s5,a0
   13074:	00051863          	bnez	a0,13084 <setvbuf+0x1dc>
   13078:	01041783          	lh	a5,16(s0)
   1307c:	fff00513          	li	a0,-1
   13080:	f71ff06f          	j	12ff0 <setvbuf+0x148>
   13084:	40000b13          	li	s6,1024
   13088:	fc1ff06f          	j	13048 <setvbuf+0x1a0>

000000000001308c <__sread>:
   1308c:	01259503          	lh	a0,18(a1)
   13090:	ff010113          	addi	sp,sp,-16
   13094:	00813023          	sd	s0,0(sp)
   13098:	00058413          	mv	s0,a1
   1309c:	00060593          	mv	a1,a2
   130a0:	00068613          	mv	a2,a3
   130a4:	00113423          	sd	ra,8(sp)
   130a8:	054070ef          	jal	ra,1a0fc <read>
   130ac:	02054063          	bltz	a0,130cc <__sread+0x40>
   130b0:	09043783          	ld	a5,144(s0)
   130b4:	00813083          	ld	ra,8(sp)
   130b8:	00a787b3          	add	a5,a5,a0
   130bc:	08f43823          	sd	a5,144(s0)
   130c0:	00013403          	ld	s0,0(sp)
   130c4:	01010113          	addi	sp,sp,16
   130c8:	00008067          	ret
   130cc:	01045703          	lhu	a4,16(s0)
   130d0:	fffff7b7          	lui	a5,0xfffff
   130d4:	00813083          	ld	ra,8(sp)
   130d8:	fff7879b          	addiw	a5,a5,-1
   130dc:	00f777b3          	and	a5,a4,a5
   130e0:	00f41823          	sh	a5,16(s0)
   130e4:	00013403          	ld	s0,0(sp)
   130e8:	01010113          	addi	sp,sp,16
   130ec:	00008067          	ret

00000000000130f0 <__seofread>:
   130f0:	00000513          	li	a0,0
   130f4:	00008067          	ret

00000000000130f8 <__swrite>:
   130f8:	01059703          	lh	a4,16(a1)
   130fc:	fd010113          	addi	sp,sp,-48
   13100:	02813023          	sd	s0,32(sp)
   13104:	00913c23          	sd	s1,24(sp)
   13108:	02113423          	sd	ra,40(sp)
   1310c:	10077793          	andi	a5,a4,256
   13110:	00058413          	mv	s0,a1
   13114:	00060493          	mv	s1,a2
   13118:	02078063          	beqz	a5,13138 <__swrite+0x40>
   1311c:	01259503          	lh	a0,18(a1)
   13120:	00200613          	li	a2,2
   13124:	00000593          	li	a1,0
   13128:	00d13423          	sd	a3,8(sp)
   1312c:	7bd060ef          	jal	ra,1a0e8 <lseek>
   13130:	01041703          	lh	a4,16(s0)
   13134:	00813683          	ld	a3,8(sp)
   13138:	fffff7b7          	lui	a5,0xfffff
   1313c:	fff7879b          	addiw	a5,a5,-1
   13140:	00f777b3          	and	a5,a4,a5
   13144:	01241503          	lh	a0,18(s0)
   13148:	00f41823          	sh	a5,16(s0)
   1314c:	00048593          	mv	a1,s1
   13150:	02813083          	ld	ra,40(sp)
   13154:	02013403          	ld	s0,32(sp)
   13158:	01813483          	ld	s1,24(sp)
   1315c:	00068613          	mv	a2,a3
   13160:	03010113          	addi	sp,sp,48
   13164:	7ad0606f          	j	1a110 <write>

0000000000013168 <__sseek>:
   13168:	01259503          	lh	a0,18(a1)
   1316c:	ff010113          	addi	sp,sp,-16
   13170:	00813023          	sd	s0,0(sp)
   13174:	00058413          	mv	s0,a1
   13178:	00060593          	mv	a1,a2
   1317c:	00068613          	mv	a2,a3
   13180:	00113423          	sd	ra,8(sp)
   13184:	765060ef          	jal	ra,1a0e8 <lseek>
   13188:	fff00793          	li	a5,-1
   1318c:	01045703          	lhu	a4,16(s0)
   13190:	02f50263          	beq	a0,a5,131b4 <__sseek+0x4c>
   13194:	00813083          	ld	ra,8(sp)
   13198:	000017b7          	lui	a5,0x1
   1319c:	00f767b3          	or	a5,a4,a5
   131a0:	08a43823          	sd	a0,144(s0)
   131a4:	00f41823          	sh	a5,16(s0)
   131a8:	00013403          	ld	s0,0(sp)
   131ac:	01010113          	addi	sp,sp,16
   131b0:	00008067          	ret
   131b4:	fffff7b7          	lui	a5,0xfffff
   131b8:	00813083          	ld	ra,8(sp)
   131bc:	fff7879b          	addiw	a5,a5,-1
   131c0:	00f777b3          	and	a5,a4,a5
   131c4:	00f41823          	sh	a5,16(s0)
   131c8:	00013403          	ld	s0,0(sp)
   131cc:	01010113          	addi	sp,sp,16
   131d0:	00008067          	ret

00000000000131d4 <__sclose>:
   131d4:	01259503          	lh	a0,18(a1)
   131d8:	7e50606f          	j	1a1bc <close>

00000000000131dc <strlen>:
   131dc:	00757793          	andi	a5,a0,7
   131e0:	00050593          	mv	a1,a0
   131e4:	06079a63          	bnez	a5,13258 <strlen+0x7c>
   131e8:	0001d7b7          	lui	a5,0x1d
   131ec:	f207b683          	ld	a3,-224(a5) # 1cf20 <mask>
   131f0:	fff00613          	li	a2,-1
   131f4:	00850513          	addi	a0,a0,8
   131f8:	ff853783          	ld	a5,-8(a0)
   131fc:	00d7f733          	and	a4,a5,a3
   13200:	00d70733          	add	a4,a4,a3
   13204:	00d7e7b3          	or	a5,a5,a3
   13208:	00f767b3          	or	a5,a4,a5
   1320c:	fec784e3          	beq	a5,a2,131f4 <strlen+0x18>
   13210:	ff854783          	lbu	a5,-8(a0)
   13214:	40b505b3          	sub	a1,a0,a1
   13218:	06078263          	beqz	a5,1327c <strlen+0xa0>
   1321c:	ff954783          	lbu	a5,-7(a0)
   13220:	04078a63          	beqz	a5,13274 <strlen+0x98>
   13224:	ffa54783          	lbu	a5,-6(a0)
   13228:	06078263          	beqz	a5,1328c <strlen+0xb0>
   1322c:	ffb54783          	lbu	a5,-5(a0)
   13230:	04078a63          	beqz	a5,13284 <strlen+0xa8>
   13234:	ffc54783          	lbu	a5,-4(a0)
   13238:	ffd54703          	lbu	a4,-3(a0)
   1323c:	ffe54683          	lbu	a3,-2(a0)
   13240:	04078a63          	beqz	a5,13294 <strlen+0xb8>
   13244:	04070c63          	beqz	a4,1329c <strlen+0xc0>
   13248:	fff58513          	addi	a0,a1,-1
   1324c:	04068c63          	beqz	a3,132a4 <strlen+0xc8>
   13250:	00008067          	ret
   13254:	f8070ae3          	beqz	a4,131e8 <strlen+0xc>
   13258:	00054783          	lbu	a5,0(a0)
   1325c:	00150513          	addi	a0,a0,1
   13260:	00757713          	andi	a4,a0,7
   13264:	fe0798e3          	bnez	a5,13254 <strlen+0x78>
   13268:	40b50533          	sub	a0,a0,a1
   1326c:	fff50513          	addi	a0,a0,-1
   13270:	00008067          	ret
   13274:	ff958513          	addi	a0,a1,-7
   13278:	00008067          	ret
   1327c:	ff858513          	addi	a0,a1,-8
   13280:	00008067          	ret
   13284:	ffb58513          	addi	a0,a1,-5
   13288:	00008067          	ret
   1328c:	ffa58513          	addi	a0,a1,-6
   13290:	00008067          	ret
   13294:	ffc58513          	addi	a0,a1,-4
   13298:	00008067          	ret
   1329c:	ffd58513          	addi	a0,a1,-3
   132a0:	00008067          	ret
   132a4:	ffe58513          	addi	a0,a1,-2
   132a8:	00008067          	ret

00000000000132ac <_strtol_r>:
   132ac:	8281be83          	ld	t4,-2008(gp)
   132b0:	00058313          	mv	t1,a1
   132b4:	0080006f          	j	132bc <_strtol_r+0x10>
   132b8:	00080313          	mv	t1,a6
   132bc:	00130813          	addi	a6,t1,1
   132c0:	fff84783          	lbu	a5,-1(a6)
   132c4:	00fe8733          	add	a4,t4,a5
   132c8:	00174703          	lbu	a4,1(a4)
   132cc:	00877713          	andi	a4,a4,8
   132d0:	fe0714e3          	bnez	a4,132b8 <_strtol_r+0xc>
   132d4:	ff010113          	addi	sp,sp,-16
   132d8:	00078893          	mv	a7,a5
   132dc:	00813423          	sd	s0,8(sp)
   132e0:	00913023          	sd	s1,0(sp)
   132e4:	02d00793          	li	a5,45
   132e8:	14f88063          	beq	a7,a5,13428 <_strtol_r+0x17c>
   132ec:	02b00793          	li	a5,43
   132f0:	00000393          	li	t2,0
   132f4:	12f88463          	beq	a7,a5,1341c <_strtol_r+0x170>
   132f8:	0e068263          	beqz	a3,133dc <_strtol_r+0x130>
   132fc:	01000793          	li	a5,16
   13300:	00068413          	mv	s0,a3
   13304:	14f68863          	beq	a3,a5,13454 <_strtol_r+0x1a8>
   13308:	fff00793          	li	a5,-1
   1330c:	0017df13          	srli	t5,a5,0x1
   13310:	00038463          	beqz	t2,13318 <_strtol_r+0x6c>
   13314:	03f79f13          	slli	t5,a5,0x3f
   13318:	028f74b3          	remu	s1,t5,s0
   1331c:	011e8733          	add	a4,t4,a7
   13320:	00174783          	lbu	a5,1(a4)
   13324:	00000e13          	li	t3,0
   13328:	00000313          	li	t1,0
   1332c:	0047f713          	andi	a4,a5,4
   13330:	00100293          	li	t0,1
   13334:	fff00f93          	li	t6,-1
   13338:	028f5f33          	divu	t5,t5,s0
   1333c:	0004849b          	sext.w	s1,s1
   13340:	04070063          	beqz	a4,13380 <_strtol_r+0xd4>
   13344:	fd08879b          	addiw	a5,a7,-48
   13348:	04d7de63          	ble	a3,a5,133a4 <_strtol_r+0xf8>
   1334c:	01fe0e63          	beq	t3,t6,13368 <_strtol_r+0xbc>
   13350:	fff00e13          	li	t3,-1
   13354:	006f6a63          	bltu	t5,t1,13368 <_strtol_r+0xbc>
   13358:	07e30e63          	beq	t1,t5,133d4 <_strtol_r+0x128>
   1335c:	00100e13          	li	t3,1
   13360:	02830333          	mul	t1,t1,s0
   13364:	00678333          	add	t1,a5,t1
   13368:	00180813          	addi	a6,a6,1
   1336c:	fff84883          	lbu	a7,-1(a6)
   13370:	011e8733          	add	a4,t4,a7
   13374:	00174783          	lbu	a5,1(a4)
   13378:	0047f713          	andi	a4,a5,4
   1337c:	fc0714e3          	bnez	a4,13344 <_strtol_r+0x98>
   13380:	0037f713          	andi	a4,a5,3
   13384:	02070063          	beqz	a4,133a4 <_strtol_r+0xf8>
   13388:	40e2873b          	subw	a4,t0,a4
   1338c:	00e03733          	snez	a4,a4
   13390:	40e0073b          	negw	a4,a4
   13394:	02077713          	andi	a4,a4,32
   13398:	0377071b          	addiw	a4,a4,55
   1339c:	40e887bb          	subw	a5,a7,a4
   133a0:	fad7c6e3          	blt	a5,a3,1334c <_strtol_r+0xa0>
   133a4:	fff00793          	li	a5,-1
   133a8:	04fe0863          	beq	t3,a5,133f8 <_strtol_r+0x14c>
   133ac:	04039263          	bnez	t2,133f0 <_strtol_r+0x144>
   133b0:	00030793          	mv	a5,t1
   133b4:	00060663          	beqz	a2,133c0 <_strtol_r+0x114>
   133b8:	040e1e63          	bnez	t3,13414 <_strtol_r+0x168>
   133bc:	00b63023          	sd	a1,0(a2) # 2000 <_ftext-0xe000>
   133c0:	00078513          	mv	a0,a5
   133c4:	00813403          	ld	s0,8(sp)
   133c8:	00013483          	ld	s1,0(sp)
   133cc:	01010113          	addi	sp,sp,16
   133d0:	00008067          	ret
   133d4:	f8f4cae3          	blt	s1,a5,13368 <_strtol_r+0xbc>
   133d8:	f85ff06f          	j	1335c <_strtol_r+0xb0>
   133dc:	03000793          	li	a5,48
   133e0:	04f88c63          	beq	a7,a5,13438 <_strtol_r+0x18c>
   133e4:	00a00413          	li	s0,10
   133e8:	00040693          	mv	a3,s0
   133ec:	f1dff06f          	j	13308 <_strtol_r+0x5c>
   133f0:	40600333          	neg	t1,t1
   133f4:	fbdff06f          	j	133b0 <_strtol_r+0x104>
   133f8:	fff00713          	li	a4,-1
   133fc:	00175793          	srli	a5,a4,0x1
   13400:	00038463          	beqz	t2,13408 <_strtol_r+0x15c>
   13404:	03f71793          	slli	a5,a4,0x3f
   13408:	02200713          	li	a4,34
   1340c:	00e52023          	sw	a4,0(a0)
   13410:	fa0608e3          	beqz	a2,133c0 <_strtol_r+0x114>
   13414:	fff80593          	addi	a1,a6,-1
   13418:	fa5ff06f          	j	133bc <_strtol_r+0x110>
   1341c:	00134883          	lbu	a7,1(t1)
   13420:	00230813          	addi	a6,t1,2
   13424:	ed5ff06f          	j	132f8 <_strtol_r+0x4c>
   13428:	00230813          	addi	a6,t1,2
   1342c:	00134883          	lbu	a7,1(t1)
   13430:	00100393          	li	t2,1
   13434:	ec5ff06f          	j	132f8 <_strtol_r+0x4c>
   13438:	00084783          	lbu	a5,0(a6)
   1343c:	05800713          	li	a4,88
   13440:	0df7f793          	andi	a5,a5,223
   13444:	02e78463          	beq	a5,a4,1346c <_strtol_r+0x1c0>
   13448:	00800413          	li	s0,8
   1344c:	00040693          	mv	a3,s0
   13450:	eb9ff06f          	j	13308 <_strtol_r+0x5c>
   13454:	03000793          	li	a5,48
   13458:	02f89463          	bne	a7,a5,13480 <_strtol_r+0x1d4>
   1345c:	00084783          	lbu	a5,0(a6)
   13460:	05800713          	li	a4,88
   13464:	0df7f793          	andi	a5,a5,223
   13468:	00e79c63          	bne	a5,a4,13480 <_strtol_r+0x1d4>
   1346c:	01000413          	li	s0,16
   13470:	00184883          	lbu	a7,1(a6)
   13474:	00040693          	mv	a3,s0
   13478:	00280813          	addi	a6,a6,2
   1347c:	e8dff06f          	j	13308 <_strtol_r+0x5c>
   13480:	01000413          	li	s0,16
   13484:	e85ff06f          	j	13308 <_strtol_r+0x5c>

0000000000013488 <strtol>:
   13488:	00060693          	mv	a3,a2
   1348c:	00058613          	mv	a2,a1
   13490:	00050593          	mv	a1,a0
   13494:	8101b503          	ld	a0,-2032(gp)
   13498:	e15ff06f          	j	132ac <_strtol_r>

000000000001349c <_vfprintf_r>:
   1349c:	e1010113          	addi	sp,sp,-496
   134a0:	1e113423          	sd	ra,488(sp)
   134a4:	1d313423          	sd	s3,456(sp)
   134a8:	1d413023          	sd	s4,448(sp)
   134ac:	1b713423          	sd	s7,424(sp)
   134b0:	00058a13          	mv	s4,a1
   134b4:	00060993          	mv	s3,a2
   134b8:	02d13423          	sd	a3,40(sp)
   134bc:	1e813023          	sd	s0,480(sp)
   134c0:	1c913c23          	sd	s1,472(sp)
   134c4:	1d213823          	sd	s2,464(sp)
   134c8:	1b513c23          	sd	s5,440(sp)
   134cc:	1b613823          	sd	s6,432(sp)
   134d0:	1b813023          	sd	s8,416(sp)
   134d4:	19913c23          	sd	s9,408(sp)
   134d8:	19a13823          	sd	s10,400(sp)
   134dc:	19b13423          	sd	s11,392(sp)
   134e0:	16813c27          	fsd	fs0,376(sp)
   134e4:	00050b93          	mv	s7,a0
   134e8:	1f5030ef          	jal	ra,16edc <_localeconv_r>
   134ec:	00053783          	ld	a5,0(a0)
   134f0:	00078513          	mv	a0,a5
   134f4:	06f13023          	sd	a5,96(sp)
   134f8:	ce5ff0ef          	jal	ra,131dc <strlen>
   134fc:	06a13423          	sd	a0,104(sp)
   13500:	000b8663          	beqz	s7,1350c <_vfprintf_r+0x70>
   13504:	050ba783          	lw	a5,80(s7)
   13508:	2e078c63          	beqz	a5,13800 <_vfprintf_r+0x364>
   1350c:	010a1683          	lh	a3,16(s4)
   13510:	03069793          	slli	a5,a3,0x30
   13514:	0307d793          	srli	a5,a5,0x30
   13518:	03279713          	slli	a4,a5,0x32
   1351c:	02074a63          	bltz	a4,13550 <_vfprintf_r+0xb4>
   13520:	000027b7          	lui	a5,0x2
   13524:	0aca2603          	lw	a2,172(s4)
   13528:	00f6e7b3          	or	a5,a3,a5
   1352c:	0107979b          	slliw	a5,a5,0x10
   13530:	ffffe737          	lui	a4,0xffffe
   13534:	4107d79b          	sraiw	a5,a5,0x10
   13538:	fff7071b          	addiw	a4,a4,-1
   1353c:	00e67733          	and	a4,a2,a4
   13540:	00fa1823          	sh	a5,16(s4)
   13544:	03079793          	slli	a5,a5,0x30
   13548:	0aea2623          	sw	a4,172(s4)
   1354c:	0307d793          	srli	a5,a5,0x30
   13550:	0087f713          	andi	a4,a5,8
   13554:	1e070063          	beqz	a4,13734 <_vfprintf_r+0x298>
   13558:	018a3703          	ld	a4,24(s4)
   1355c:	1c070c63          	beqz	a4,13734 <_vfprintf_r+0x298>
   13560:	01a7f793          	andi	a5,a5,26
   13564:	00a00713          	li	a4,10
   13568:	1ee78863          	beq	a5,a4,13758 <_vfprintf_r+0x2bc>
   1356c:	0001a7b7          	lui	a5,0x1a
   13570:	59078793          	addi	a5,a5,1424 # 1a590 <__errno+0x134>
   13574:	0f010b13          	addi	s6,sp,240
   13578:	02f13823          	sd	a5,48(sp)
   1357c:	0ef10793          	addi	a5,sp,239
   13580:	0001aab7          	lui	s5,0x1a
   13584:	0001a4b7          	lui	s1,0x1a
   13588:	40fb07b3          	sub	a5,s6,a5
   1358c:	04013c23          	sd	zero,88(sp)
   13590:	0b613823          	sd	s6,176(sp)
   13594:	0c013023          	sd	zero,192(sp)
   13598:	0a012c23          	sw	zero,184(sp)
   1359c:	06012823          	sw	zero,112(sp)
   135a0:	000b0893          	mv	a7,s6
   135a4:	02013c23          	sd	zero,56(sp)
   135a8:	06012a23          	sw	zero,116(sp)
   135ac:	00012e23          	sw	zero,28(sp)
   135b0:	6f8a8a93          	addi	s5,s5,1784 # 1a6f8 <blanks.4193>
   135b4:	70848493          	addi	s1,s1,1800 # 1a708 <zeroes.4194>
   135b8:	06f13c23          	sd	a5,120(sp)
   135bc:	0009c783          	lbu	a5,0(s3)
   135c0:	0e0782e3          	beqz	a5,13ea4 <_vfprintf_r+0xa08>
   135c4:	02500713          	li	a4,37
   135c8:	00098413          	mv	s0,s3
   135cc:	00e79663          	bne	a5,a4,135d8 <_vfprintf_r+0x13c>
   135d0:	0580006f          	j	13628 <_vfprintf_r+0x18c>
   135d4:	00e78863          	beq	a5,a4,135e4 <_vfprintf_r+0x148>
   135d8:	00140413          	addi	s0,s0,1
   135dc:	00044783          	lbu	a5,0(s0)
   135e0:	fe079ae3          	bnez	a5,135d4 <_vfprintf_r+0x138>
   135e4:	4134093b          	subw	s2,s0,s3
   135e8:	04090063          	beqz	s2,13628 <_vfprintf_r+0x18c>
   135ec:	0c013703          	ld	a4,192(sp)
   135f0:	0b812783          	lw	a5,184(sp)
   135f4:	00090693          	mv	a3,s2
   135f8:	00d70733          	add	a4,a4,a3
   135fc:	0017879b          	addiw	a5,a5,1
   13600:	0138b023          	sd	s3,0(a7)
   13604:	00d8b423          	sd	a3,8(a7)
   13608:	0ce13023          	sd	a4,192(sp)
   1360c:	0af12c23          	sw	a5,184(sp)
   13610:	00700713          	li	a4,7
   13614:	01088893          	addi	a7,a7,16
   13618:	16f74063          	blt	a4,a5,13778 <_vfprintf_r+0x2dc>
   1361c:	01c12783          	lw	a5,28(sp)
   13620:	012787bb          	addw	a5,a5,s2
   13624:	00f12e23          	sw	a5,28(sp)
   13628:	00044783          	lbu	a5,0(s0)
   1362c:	16078463          	beqz	a5,13794 <_vfprintf_r+0x2f8>
   13630:	00140993          	addi	s3,s0,1
   13634:	080107a3          	sb	zero,143(sp)
   13638:	00000613          	li	a2,0
   1363c:	00000593          	li	a1,0
   13640:	fff00413          	li	s0,-1
   13644:	00012c23          	sw	zero,24(sp)
   13648:	00000c13          	li	s8,0
   1364c:	05800713          	li	a4,88
   13650:	00900693          	li	a3,9
   13654:	02a00513          	li	a0,42
   13658:	0009cd03          	lbu	s10,0(s3)
   1365c:	00198993          	addi	s3,s3,1
   13660:	fe0d079b          	addiw	a5,s10,-32
   13664:	1cf762e3          	bltu	a4,a5,14028 <_vfprintf_r+0xb8c>
   13668:	03013803          	ld	a6,48(sp)
   1366c:	02079793          	slli	a5,a5,0x20
   13670:	01e7d793          	srli	a5,a5,0x1e
   13674:	010787b3          	add	a5,a5,a6
   13678:	0007a783          	lw	a5,0(a5)
   1367c:	00078067          	jr	a5
   13680:	010c6c13          	ori	s8,s8,16
   13684:	fd5ff06f          	j	13658 <_vfprintf_r+0x1bc>
   13688:	02813783          	ld	a5,40(sp)
   1368c:	0007a803          	lw	a6,0(a5)
   13690:	00878793          	addi	a5,a5,8
   13694:	02f13423          	sd	a5,40(sp)
   13698:	01012c23          	sw	a6,24(sp)
   1369c:	fa085ee3          	bgez	a6,13658 <_vfprintf_r+0x1bc>
   136a0:	410007bb          	negw	a5,a6
   136a4:	00f12c23          	sw	a5,24(sp)
   136a8:	004c6c13          	ori	s8,s8,4
   136ac:	fadff06f          	j	13658 <_vfprintf_r+0x1bc>
   136b0:	03000793          	li	a5,48
   136b4:	08f10823          	sb	a5,144(sp)
   136b8:	07800793          	li	a5,120
   136bc:	08f108a3          	sb	a5,145(sp)
   136c0:	02813783          	ld	a5,40(sp)
   136c4:	080107a3          	sb	zero,143(sp)
   136c8:	002c6693          	ori	a3,s8,2
   136cc:	00878713          	addi	a4,a5,8
   136d0:	0007b783          	ld	a5,0(a5)
   136d4:	180444e3          	bltz	s0,1405c <_vfprintf_r+0xbc0>
   136d8:	f7fc7c13          	andi	s8,s8,-129
   136dc:	02e13423          	sd	a4,40(sp)
   136e0:	002c6c13          	ori	s8,s8,2
   136e4:	120796e3          	bnez	a5,14010 <_vfprintf_r+0xb74>
   136e8:	0001b7b7          	lui	a5,0x1b
   136ec:	b1878793          	addi	a5,a5,-1256 # 1ab18 <zeroes.4137+0x58>
   136f0:	02f13c23          	sd	a5,56(sp)
   136f4:	07800d13          	li	s10,120
   136f8:	00000613          	li	a2,0
   136fc:	7e040463          	beqz	s0,13ee4 <_vfprintf_r+0xa48>
   13700:	00000793          	li	a5,0
   13704:	000b0913          	mv	s2,s6
   13708:	03813683          	ld	a3,56(sp)
   1370c:	00f7f713          	andi	a4,a5,15
   13710:	fff90913          	addi	s2,s2,-1
   13714:	00e68733          	add	a4,a3,a4
   13718:	00074703          	lbu	a4,0(a4) # ffffffffffffe000 <_gp+0xfffffffffffe0930>
   1371c:	0047d793          	srli	a5,a5,0x4
   13720:	00e90023          	sb	a4,0(s2)
   13724:	fe0792e3          	bnez	a5,13708 <_vfprintf_r+0x26c>
   13728:	412b07b3          	sub	a5,s6,s2
   1372c:	02f12023          	sw	a5,32(sp)
   13730:	1680006f          	j	13898 <_vfprintf_r+0x3fc>
   13734:	000a0593          	mv	a1,s4
   13738:	000b8513          	mv	a0,s7
   1373c:	2bd010ef          	jal	ra,151f8 <__swsetup_r>
   13740:	00050463          	beqz	a0,13748 <_vfprintf_r+0x2ac>
   13744:	3940106f          	j	14ad8 <_vfprintf_r+0x163c>
   13748:	010a5783          	lhu	a5,16(s4)
   1374c:	00a00713          	li	a4,10
   13750:	01a7f793          	andi	a5,a5,26
   13754:	e0e79ce3          	bne	a5,a4,1356c <_vfprintf_r+0xd0>
   13758:	012a1783          	lh	a5,18(s4)
   1375c:	e007c8e3          	bltz	a5,1356c <_vfprintf_r+0xd0>
   13760:	02813683          	ld	a3,40(sp)
   13764:	00098613          	mv	a2,s3
   13768:	000a0593          	mv	a1,s4
   1376c:	000b8513          	mv	a0,s7
   13770:	1c9010ef          	jal	ra,15138 <__sbprintf>
   13774:	04c0006f          	j	137c0 <_vfprintf_r+0x324>
   13778:	0b010613          	addi	a2,sp,176
   1377c:	000a0593          	mv	a1,s4
   13780:	000b8513          	mv	a0,s7
   13784:	128050ef          	jal	ra,188ac <__sprint_r>
   13788:	02051263          	bnez	a0,137ac <_vfprintf_r+0x310>
   1378c:	000b0893          	mv	a7,s6
   13790:	e8dff06f          	j	1361c <_vfprintf_r+0x180>
   13794:	0c013783          	ld	a5,192(sp)
   13798:	00078a63          	beqz	a5,137ac <_vfprintf_r+0x310>
   1379c:	0b010613          	addi	a2,sp,176
   137a0:	000a0593          	mv	a1,s4
   137a4:	000b8513          	mv	a0,s7
   137a8:	104050ef          	jal	ra,188ac <__sprint_r>
   137ac:	010a5783          	lhu	a5,16(s4)
   137b0:	0407f793          	andi	a5,a5,64
   137b4:	00078463          	beqz	a5,137bc <_vfprintf_r+0x320>
   137b8:	3200106f          	j	14ad8 <_vfprintf_r+0x163c>
   137bc:	01c12503          	lw	a0,28(sp)
   137c0:	1e813083          	ld	ra,488(sp)
   137c4:	1e013403          	ld	s0,480(sp)
   137c8:	1d813483          	ld	s1,472(sp)
   137cc:	1d013903          	ld	s2,464(sp)
   137d0:	1c813983          	ld	s3,456(sp)
   137d4:	1c013a03          	ld	s4,448(sp)
   137d8:	1b813a83          	ld	s5,440(sp)
   137dc:	1b013b03          	ld	s6,432(sp)
   137e0:	1a813b83          	ld	s7,424(sp)
   137e4:	1a013c03          	ld	s8,416(sp)
   137e8:	19813c83          	ld	s9,408(sp)
   137ec:	19013d03          	ld	s10,400(sp)
   137f0:	18813d83          	ld	s11,392(sp)
   137f4:	17813407          	fld	fs0,376(sp)
   137f8:	1f010113          	addi	sp,sp,496
   137fc:	00008067          	ret
   13800:	000b8513          	mv	a0,s7
   13804:	8e9fd0ef          	jal	ra,110ec <__sinit>
   13808:	d05ff06f          	j	1350c <_vfprintf_r+0x70>
   1380c:	00100613          	li	a2,1
   13810:	02b00593          	li	a1,43
   13814:	e45ff06f          	j	13658 <_vfprintf_r+0x1bc>
   13818:	00060463          	beqz	a2,13820 <_vfprintf_r+0x384>
   1381c:	0d90106f          	j	150f4 <_vfprintf_r+0x1c58>
   13820:	010c7793          	andi	a5,s8,16
   13824:	22078263          	beqz	a5,13a48 <_vfprintf_r+0x5ac>
   13828:	02813783          	ld	a5,40(sp)
   1382c:	080107a3          	sb	zero,143(sp)
   13830:	00878713          	addi	a4,a5,8
   13834:	0007b783          	ld	a5,0(a5)
   13838:	22044663          	bltz	s0,13a64 <_vfprintf_r+0x5c8>
   1383c:	02e13423          	sd	a4,40(sp)
   13840:	f7fc7c13          	andi	s8,s8,-129
   13844:	22079663          	bnez	a5,13a70 <_vfprintf_r+0x5d4>
   13848:	00000613          	li	a2,0
   1384c:	00000793          	li	a5,0
   13850:	00041463          	bnez	s0,13858 <_vfprintf_r+0x3bc>
   13854:	3680106f          	j	14bbc <_vfprintf_r+0x1720>
   13858:	000b0913          	mv	s2,s6
   1385c:	0077f713          	andi	a4,a5,7
   13860:	fff90913          	addi	s2,s2,-1
   13864:	0307071b          	addiw	a4,a4,48
   13868:	00e90023          	sb	a4,0(s2)
   1386c:	0037d793          	srli	a5,a5,0x3
   13870:	fe0796e3          	bnez	a5,1385c <_vfprintf_r+0x3c0>
   13874:	001c7793          	andi	a5,s8,1
   13878:	ea0788e3          	beqz	a5,13728 <_vfprintf_r+0x28c>
   1387c:	03000793          	li	a5,48
   13880:	eaf704e3          	beq	a4,a5,13728 <_vfprintf_r+0x28c>
   13884:	fff90713          	addi	a4,s2,-1
   13888:	40eb06b3          	sub	a3,s6,a4
   1388c:	fef90fa3          	sb	a5,-1(s2)
   13890:	02d12023          	sw	a3,32(sp)
   13894:	00070913          	mv	s2,a4
   13898:	02012783          	lw	a5,32(sp)
   1389c:	00078d93          	mv	s11,a5
   138a0:	0087d463          	ble	s0,a5,138a8 <_vfprintf_r+0x40c>
   138a4:	00040d93          	mv	s11,s0
   138a8:	01b12423          	sw	s11,8(sp)
   138ac:	04012623          	sw	zero,76(sp)
   138b0:	2a060263          	beqz	a2,13b54 <_vfprintf_r+0x6b8>
   138b4:	00812783          	lw	a5,8(sp)
   138b8:	0017879b          	addiw	a5,a5,1
   138bc:	00f12423          	sw	a5,8(sp)
   138c0:	2940006f          	j	13b54 <_vfprintf_r+0x6b8>
   138c4:	0009cd03          	lbu	s10,0(s3)
   138c8:	00198993          	addi	s3,s3,1
   138cc:	00ad1463          	bne	s10,a0,138d4 <_vfprintf_r+0x438>
   138d0:	75c0106f          	j	1502c <_vfprintf_r+0x1b90>
   138d4:	fd0d079b          	addiw	a5,s10,-48
   138d8:	00000413          	li	s0,0
   138dc:	d8f6e2e3          	bltu	a3,a5,13660 <_vfprintf_r+0x1c4>
   138e0:	00198993          	addi	s3,s3,1
   138e4:	fff9cd03          	lbu	s10,-1(s3)
   138e8:	0014181b          	slliw	a6,s0,0x1
   138ec:	0034141b          	slliw	s0,s0,0x3
   138f0:	0088043b          	addw	s0,a6,s0
   138f4:	00f4043b          	addw	s0,s0,a5
   138f8:	fd0d079b          	addiw	a5,s10,-48
   138fc:	fef6f2e3          	bleu	a5,a3,138e0 <_vfprintf_r+0x444>
   13900:	d60450e3          	bgez	s0,13660 <_vfprintf_r+0x1c4>
   13904:	fff00413          	li	s0,-1
   13908:	d59ff06f          	j	13660 <_vfprintf_r+0x1c4>
   1390c:	080c6c13          	ori	s8,s8,128
   13910:	d49ff06f          	j	13658 <_vfprintf_r+0x1bc>
   13914:	d40592e3          	bnez	a1,13658 <_vfprintf_r+0x1bc>
   13918:	00100613          	li	a2,1
   1391c:	02000593          	li	a1,32
   13920:	d39ff06f          	j	13658 <_vfprintf_r+0x1bc>
   13924:	001c6c13          	ori	s8,s8,1
   13928:	d31ff06f          	j	13658 <_vfprintf_r+0x1bc>
   1392c:	02813783          	ld	a5,40(sp)
   13930:	080107a3          	sb	zero,143(sp)
   13934:	0007b903          	ld	s2,0(a5)
   13938:	00878c93          	addi	s9,a5,8
   1393c:	00091463          	bnez	s2,13944 <_vfprintf_r+0x4a8>
   13940:	39c0106f          	j	14cdc <_vfprintf_r+0x1840>
   13944:	01113023          	sd	a7,0(sp)
   13948:	00045463          	bgez	s0,13950 <_vfprintf_r+0x4b4>
   1394c:	3240106f          	j	14c70 <_vfprintf_r+0x17d4>
   13950:	00040613          	mv	a2,s0
   13954:	00000593          	li	a1,0
   13958:	00090513          	mv	a0,s2
   1395c:	e2dfe0ef          	jal	ra,12788 <memchr>
   13960:	00013883          	ld	a7,0(sp)
   13964:	00051463          	bnez	a0,1396c <_vfprintf_r+0x4d0>
   13968:	4c00106f          	j	14e28 <_vfprintf_r+0x198c>
   1396c:	412507bb          	subw	a5,a0,s2
   13970:	02f12023          	sw	a5,32(sp)
   13974:	00078d93          	mv	s11,a5
   13978:	0007d463          	bgez	a5,13980 <_vfprintf_r+0x4e4>
   1397c:	3140106f          	j	14c90 <_vfprintf_r+0x17f4>
   13980:	08f14603          	lbu	a2,143(sp)
   13984:	01b12423          	sw	s11,8(sp)
   13988:	03913423          	sd	s9,40(sp)
   1398c:	00000413          	li	s0,0
   13990:	04012623          	sw	zero,76(sp)
   13994:	f1dff06f          	j	138b0 <_vfprintf_r+0x414>
   13998:	00060463          	beqz	a2,139a0 <_vfprintf_r+0x504>
   1399c:	7800106f          	j	1511c <_vfprintf_r+0x1c80>
   139a0:	010c7793          	andi	a5,s8,16
   139a4:	0e078463          	beqz	a5,13a8c <_vfprintf_r+0x5f0>
   139a8:	02813783          	ld	a5,40(sp)
   139ac:	080107a3          	sb	zero,143(sp)
   139b0:	00878713          	addi	a4,a5,8
   139b4:	0007b783          	ld	a5,0(a5)
   139b8:	0e044863          	bltz	s0,13aa8 <_vfprintf_r+0x60c>
   139bc:	02e13423          	sd	a4,40(sp)
   139c0:	f7fc7c13          	andi	s8,s8,-129
   139c4:	00000613          	li	a2,0
   139c8:	50078c63          	beqz	a5,13ee0 <_vfprintf_r+0xa44>
   139cc:	00900713          	li	a4,9
   139d0:	000b0913          	mv	s2,s6
   139d4:	00a00693          	li	a3,10
   139d8:	40f770e3          	bleu	a5,a4,145d8 <_vfprintf_r+0x113c>
   139dc:	02d7f733          	remu	a4,a5,a3
   139e0:	fff90913          	addi	s2,s2,-1
   139e4:	02d7d7b3          	divu	a5,a5,a3
   139e8:	0307071b          	addiw	a4,a4,48
   139ec:	00e90023          	sb	a4,0(s2)
   139f0:	fe0796e3          	bnez	a5,139dc <_vfprintf_r+0x540>
   139f4:	412b07b3          	sub	a5,s6,s2
   139f8:	02f12023          	sw	a5,32(sp)
   139fc:	e9dff06f          	j	13898 <_vfprintf_r+0x3fc>
   13a00:	00012c23          	sw	zero,24(sp)
   13a04:	fd0d079b          	addiw	a5,s10,-48
   13a08:	01812303          	lw	t1,24(sp)
   13a0c:	00198993          	addi	s3,s3,1
   13a10:	fff9cd03          	lbu	s10,-1(s3)
   13a14:	0013181b          	slliw	a6,t1,0x1
   13a18:	00331c9b          	slliw	s9,t1,0x3
   13a1c:	01980cbb          	addw	s9,a6,s9
   13a20:	019787bb          	addw	a5,a5,s9
   13a24:	00f12c23          	sw	a5,24(sp)
   13a28:	fd0d079b          	addiw	a5,s10,-48
   13a2c:	fcf6fee3          	bleu	a5,a3,13a08 <_vfprintf_r+0x56c>
   13a30:	c31ff06f          	j	13660 <_vfprintf_r+0x1c4>
   13a34:	00060463          	beqz	a2,13a3c <_vfprintf_r+0x5a0>
   13a38:	6d80106f          	j	15110 <_vfprintf_r+0x1c74>
   13a3c:	010c6c13          	ori	s8,s8,16
   13a40:	010c7793          	andi	a5,s8,16
   13a44:	de0792e3          	bnez	a5,13828 <_vfprintf_r+0x38c>
   13a48:	040c7793          	andi	a5,s8,64
   13a4c:	080107a3          	sb	zero,143(sp)
   13a50:	580780e3          	beqz	a5,147d0 <_vfprintf_r+0x1334>
   13a54:	02813783          	ld	a5,40(sp)
   13a58:	00878713          	addi	a4,a5,8
   13a5c:	0007d783          	lhu	a5,0(a5)
   13a60:	dc045ee3          	bgez	s0,1383c <_vfprintf_r+0x3a0>
   13a64:	02e13423          	sd	a4,40(sp)
   13a68:	00000613          	li	a2,0
   13a6c:	60078a63          	beqz	a5,14080 <_vfprintf_r+0xbe4>
   13a70:	00000613          	li	a2,0
   13a74:	de5ff06f          	j	13858 <_vfprintf_r+0x3bc>
   13a78:	00060463          	beqz	a2,13a80 <_vfprintf_r+0x5e4>
   13a7c:	6880106f          	j	15104 <_vfprintf_r+0x1c68>
   13a80:	010c6c13          	ori	s8,s8,16
   13a84:	010c7793          	andi	a5,s8,16
   13a88:	f20790e3          	bnez	a5,139a8 <_vfprintf_r+0x50c>
   13a8c:	040c7793          	andi	a5,s8,64
   13a90:	080107a3          	sb	zero,143(sp)
   13a94:	500780e3          	beqz	a5,14794 <_vfprintf_r+0x12f8>
   13a98:	02813783          	ld	a5,40(sp)
   13a9c:	00878713          	addi	a4,a5,8
   13aa0:	0007d783          	lhu	a5,0(a5)
   13aa4:	f0045ce3          	bgez	s0,139bc <_vfprintf_r+0x520>
   13aa8:	02e13423          	sd	a4,40(sp)
   13aac:	00000613          	li	a2,0
   13ab0:	f0079ee3          	bnez	a5,139cc <_vfprintf_r+0x530>
   13ab4:	00100793          	li	a5,1
   13ab8:	5c80006f          	j	14080 <_vfprintf_r+0xbe4>
   13abc:	00060463          	beqz	a2,13ac4 <_vfprintf_r+0x628>
   13ac0:	63c0106f          	j	150fc <_vfprintf_r+0x1c60>
   13ac4:	0001b7b7          	lui	a5,0x1b
   13ac8:	b0078793          	addi	a5,a5,-1280 # 1ab00 <zeroes.4137+0x40>
   13acc:	02f13c23          	sd	a5,56(sp)
   13ad0:	010c7793          	andi	a5,s8,16
   13ad4:	4c078263          	beqz	a5,13f98 <_vfprintf_r+0xafc>
   13ad8:	02813703          	ld	a4,40(sp)
   13adc:	00073783          	ld	a5,0(a4)
   13ae0:	00870713          	addi	a4,a4,8
   13ae4:	02e13423          	sd	a4,40(sp)
   13ae8:	001c7713          	andi	a4,s8,1
   13aec:	120706e3          	beqz	a4,14418 <_vfprintf_r+0xf7c>
   13af0:	6a078ee3          	beqz	a5,149ac <_vfprintf_r+0x1510>
   13af4:	03000713          	li	a4,48
   13af8:	08e10823          	sb	a4,144(sp)
   13afc:	09a108a3          	sb	s10,145(sp)
   13b00:	080107a3          	sb	zero,143(sp)
   13b04:	002c6713          	ori	a4,s8,2
   13b08:	00045463          	bgez	s0,13b10 <_vfprintf_r+0x674>
   13b0c:	2140106f          	j	14d20 <_vfprintf_r+0x1884>
   13b10:	f7fc7c13          	andi	s8,s8,-129
   13b14:	002c6c13          	ori	s8,s8,2
   13b18:	00000613          	li	a2,0
   13b1c:	be9ff06f          	j	13704 <_vfprintf_r+0x268>
   13b20:	02813703          	ld	a4,40(sp)
   13b24:	00100693          	li	a3,1
   13b28:	00d12423          	sw	a3,8(sp)
   13b2c:	00072783          	lw	a5,0(a4)
   13b30:	080107a3          	sb	zero,143(sp)
   13b34:	00000613          	li	a2,0
   13b38:	0cf10423          	sb	a5,200(sp)
   13b3c:	00870793          	addi	a5,a4,8
   13b40:	02f13423          	sd	a5,40(sp)
   13b44:	02d12023          	sw	a3,32(sp)
   13b48:	00000413          	li	s0,0
   13b4c:	04012623          	sw	zero,76(sp)
   13b50:	0c810913          	addi	s2,sp,200
   13b54:	002c7793          	andi	a5,s8,2
   13b58:	04f12023          	sw	a5,64(sp)
   13b5c:	00078863          	beqz	a5,13b6c <_vfprintf_r+0x6d0>
   13b60:	00812783          	lw	a5,8(sp)
   13b64:	0027879b          	addiw	a5,a5,2
   13b68:	00f12423          	sw	a5,8(sp)
   13b6c:	084c7793          	andi	a5,s8,132
   13b70:	04f12423          	sw	a5,72(sp)
   13b74:	52079263          	bnez	a5,14098 <_vfprintf_r+0xbfc>
   13b78:	01812783          	lw	a5,24(sp)
   13b7c:	00812703          	lw	a4,8(sp)
   13b80:	40e78cbb          	subw	s9,a5,a4
   13b84:	51905a63          	blez	s9,14098 <_vfprintf_r+0xbfc>
   13b88:	01000793          	li	a5,16
   13b8c:	0197c463          	blt	a5,s9,13b94 <_vfprintf_r+0x6f8>
   13b90:	1080106f          	j	14c98 <_vfprintf_r+0x17fc>
   13b94:	01000813          	li	a6,16
   13b98:	0c013783          	ld	a5,192(sp)
   13b9c:	0b812703          	lw	a4,184(sp)
   13ba0:	05513823          	sd	s5,80(sp)
   13ba4:	00700313          	li	t1,7
   13ba8:	00080d93          	mv	s11,a6
   13bac:	00c0006f          	j	13bb8 <_vfprintf_r+0x71c>
   13bb0:	ff0c8c9b          	addiw	s9,s9,-16
   13bb4:	059dde63          	ble	s9,s11,13c10 <_vfprintf_r+0x774>
   13bb8:	01078793          	addi	a5,a5,16
   13bbc:	0017071b          	addiw	a4,a4,1
   13bc0:	0158b023          	sd	s5,0(a7)
   13bc4:	0108b423          	sd	a6,8(a7)
   13bc8:	0cf13023          	sd	a5,192(sp)
   13bcc:	0ae12c23          	sw	a4,184(sp)
   13bd0:	01088893          	addi	a7,a7,16
   13bd4:	fce35ee3          	ble	a4,t1,13bb0 <_vfprintf_r+0x714>
   13bd8:	0b010613          	addi	a2,sp,176
   13bdc:	000a0593          	mv	a1,s4
   13be0:	000b8513          	mv	a0,s7
   13be4:	00613823          	sd	t1,16(sp)
   13be8:	01013023          	sd	a6,0(sp)
   13bec:	4c1040ef          	jal	ra,188ac <__sprint_r>
   13bf0:	ba051ee3          	bnez	a0,137ac <_vfprintf_r+0x310>
   13bf4:	ff0c8c9b          	addiw	s9,s9,-16
   13bf8:	0c013783          	ld	a5,192(sp)
   13bfc:	0b812703          	lw	a4,184(sp)
   13c00:	000b0893          	mv	a7,s6
   13c04:	01013303          	ld	t1,16(sp)
   13c08:	00013803          	ld	a6,0(sp)
   13c0c:	fb9dc6e3          	blt	s11,s9,13bb8 <_vfprintf_r+0x71c>
   13c10:	05013603          	ld	a2,80(sp)
   13c14:	00fc87b3          	add	a5,s9,a5
   13c18:	0017071b          	addiw	a4,a4,1
   13c1c:	00c8b023          	sd	a2,0(a7)
   13c20:	0198b423          	sd	s9,8(a7)
   13c24:	0cf13023          	sd	a5,192(sp)
   13c28:	0ae12c23          	sw	a4,184(sp)
   13c2c:	00700693          	li	a3,7
   13c30:	0ce6cae3          	blt	a3,a4,14504 <_vfprintf_r+0x1068>
   13c34:	08f14603          	lbu	a2,143(sp)
   13c38:	01088893          	addi	a7,a7,16
   13c3c:	02060a63          	beqz	a2,13c70 <_vfprintf_r+0x7d4>
   13c40:	0b812703          	lw	a4,184(sp)
   13c44:	08f10693          	addi	a3,sp,143
   13c48:	00d8b023          	sd	a3,0(a7)
   13c4c:	00178793          	addi	a5,a5,1
   13c50:	00100693          	li	a3,1
   13c54:	0017071b          	addiw	a4,a4,1
   13c58:	00d8b423          	sd	a3,8(a7)
   13c5c:	0cf13023          	sd	a5,192(sp)
   13c60:	0ae12c23          	sw	a4,184(sp)
   13c64:	00700693          	li	a3,7
   13c68:	01088893          	addi	a7,a7,16
   13c6c:	76e6c663          	blt	a3,a4,143d8 <_vfprintf_r+0xf3c>
   13c70:	04012703          	lw	a4,64(sp)
   13c74:	02070a63          	beqz	a4,13ca8 <_vfprintf_r+0x80c>
   13c78:	0b812703          	lw	a4,184(sp)
   13c7c:	09010693          	addi	a3,sp,144
   13c80:	00d8b023          	sd	a3,0(a7)
   13c84:	00278793          	addi	a5,a5,2
   13c88:	00200693          	li	a3,2
   13c8c:	0017071b          	addiw	a4,a4,1
   13c90:	00d8b423          	sd	a3,8(a7)
   13c94:	0cf13023          	sd	a5,192(sp)
   13c98:	0ae12c23          	sw	a4,184(sp)
   13c9c:	00700693          	li	a3,7
   13ca0:	01088893          	addi	a7,a7,16
   13ca4:	74e6ca63          	blt	a3,a4,143f8 <_vfprintf_r+0xf5c>
   13ca8:	04812683          	lw	a3,72(sp)
   13cac:	08000713          	li	a4,128
   13cb0:	5ee68663          	beq	a3,a4,1429c <_vfprintf_r+0xe00>
   13cb4:	02012703          	lw	a4,32(sp)
   13cb8:	40e4043b          	subw	s0,s0,a4
   13cbc:	0c805063          	blez	s0,13d7c <_vfprintf_r+0x8e0>
   13cc0:	01000713          	li	a4,16
   13cc4:	4e875ce3          	ble	s0,a4,149bc <_vfprintf_r+0x1520>
   13cc8:	01000c93          	li	s9,16
   13ccc:	0b812703          	lw	a4,184(sp)
   13cd0:	00913823          	sd	s1,16(sp)
   13cd4:	00700813          	li	a6,7
   13cd8:	000c8d93          	mv	s11,s9
   13cdc:	00c0006f          	j	13ce8 <_vfprintf_r+0x84c>
   13ce0:	ff04041b          	addiw	s0,s0,-16
   13ce4:	048dda63          	ble	s0,s11,13d38 <_vfprintf_r+0x89c>
   13ce8:	01078793          	addi	a5,a5,16
   13cec:	0017071b          	addiw	a4,a4,1
   13cf0:	0098b023          	sd	s1,0(a7)
   13cf4:	0198b423          	sd	s9,8(a7)
   13cf8:	0cf13023          	sd	a5,192(sp)
   13cfc:	0ae12c23          	sw	a4,184(sp)
   13d00:	01088893          	addi	a7,a7,16
   13d04:	fce85ee3          	ble	a4,a6,13ce0 <_vfprintf_r+0x844>
   13d08:	0b010613          	addi	a2,sp,176
   13d0c:	000a0593          	mv	a1,s4
   13d10:	000b8513          	mv	a0,s7
   13d14:	01013023          	sd	a6,0(sp)
   13d18:	395040ef          	jal	ra,188ac <__sprint_r>
   13d1c:	a80518e3          	bnez	a0,137ac <_vfprintf_r+0x310>
   13d20:	ff04041b          	addiw	s0,s0,-16
   13d24:	0c013783          	ld	a5,192(sp)
   13d28:	0b812703          	lw	a4,184(sp)
   13d2c:	000b0893          	mv	a7,s6
   13d30:	00013803          	ld	a6,0(sp)
   13d34:	fa8dcae3          	blt	s11,s0,13ce8 <_vfprintf_r+0x84c>
   13d38:	01013683          	ld	a3,16(sp)
   13d3c:	008787b3          	add	a5,a5,s0
   13d40:	0017071b          	addiw	a4,a4,1
   13d44:	00d8b023          	sd	a3,0(a7)
   13d48:	0088b423          	sd	s0,8(a7)
   13d4c:	0cf13023          	sd	a5,192(sp)
   13d50:	0ae12c23          	sw	a4,184(sp)
   13d54:	00700693          	li	a3,7
   13d58:	01088893          	addi	a7,a7,16
   13d5c:	02e6d063          	ble	a4,a3,13d7c <_vfprintf_r+0x8e0>
   13d60:	0b010613          	addi	a2,sp,176
   13d64:	000a0593          	mv	a1,s4
   13d68:	000b8513          	mv	a0,s7
   13d6c:	341040ef          	jal	ra,188ac <__sprint_r>
   13d70:	a2051ee3          	bnez	a0,137ac <_vfprintf_r+0x310>
   13d74:	0c013783          	ld	a5,192(sp)
   13d78:	000b0893          	mv	a7,s6
   13d7c:	100c7713          	andi	a4,s8,256
   13d80:	40071663          	bnez	a4,1418c <_vfprintf_r+0xcf0>
   13d84:	02012703          	lw	a4,32(sp)
   13d88:	0b812683          	lw	a3,184(sp)
   13d8c:	0128b023          	sd	s2,0(a7)
   13d90:	00e787b3          	add	a5,a5,a4
   13d94:	0016869b          	addiw	a3,a3,1
   13d98:	00e8b423          	sd	a4,8(a7)
   13d9c:	0cf13023          	sd	a5,192(sp)
   13da0:	0ad12c23          	sw	a3,184(sp)
   13da4:	00700713          	li	a4,7
   13da8:	3cd74263          	blt	a4,a3,1416c <_vfprintf_r+0xcd0>
   13dac:	01088893          	addi	a7,a7,16
   13db0:	004c7c13          	andi	s8,s8,4
   13db4:	0c0c0063          	beqz	s8,13e74 <_vfprintf_r+0x9d8>
   13db8:	01812703          	lw	a4,24(sp)
   13dbc:	00812683          	lw	a3,8(sp)
   13dc0:	40d7043b          	subw	s0,a4,a3
   13dc4:	0a805863          	blez	s0,13e74 <_vfprintf_r+0x9d8>
   13dc8:	01000713          	li	a4,16
   13dcc:	748754e3          	ble	s0,a4,14d14 <_vfprintf_r+0x1878>
   13dd0:	01000913          	li	s2,16
   13dd4:	0b812703          	lw	a4,184(sp)
   13dd8:	05513823          	sd	s5,80(sp)
   13ddc:	00700c13          	li	s8,7
   13de0:	00090d13          	mv	s10,s2
   13de4:	00c0006f          	j	13df0 <_vfprintf_r+0x954>
   13de8:	ff04041b          	addiw	s0,s0,-16
   13dec:	048d5663          	ble	s0,s10,13e38 <_vfprintf_r+0x99c>
   13df0:	01078793          	addi	a5,a5,16
   13df4:	0017071b          	addiw	a4,a4,1
   13df8:	0158b023          	sd	s5,0(a7)
   13dfc:	0128b423          	sd	s2,8(a7)
   13e00:	0cf13023          	sd	a5,192(sp)
   13e04:	0ae12c23          	sw	a4,184(sp)
   13e08:	01088893          	addi	a7,a7,16
   13e0c:	fcec5ee3          	ble	a4,s8,13de8 <_vfprintf_r+0x94c>
   13e10:	0b010613          	addi	a2,sp,176
   13e14:	000a0593          	mv	a1,s4
   13e18:	000b8513          	mv	a0,s7
   13e1c:	291040ef          	jal	ra,188ac <__sprint_r>
   13e20:	980516e3          	bnez	a0,137ac <_vfprintf_r+0x310>
   13e24:	ff04041b          	addiw	s0,s0,-16
   13e28:	0c013783          	ld	a5,192(sp)
   13e2c:	0b812703          	lw	a4,184(sp)
   13e30:	000b0893          	mv	a7,s6
   13e34:	fa8d4ee3          	blt	s10,s0,13df0 <_vfprintf_r+0x954>
   13e38:	05013683          	ld	a3,80(sp)
   13e3c:	008787b3          	add	a5,a5,s0
   13e40:	0017071b          	addiw	a4,a4,1
   13e44:	00d8b023          	sd	a3,0(a7)
   13e48:	0088b423          	sd	s0,8(a7)
   13e4c:	0cf13023          	sd	a5,192(sp)
   13e50:	0ae12c23          	sw	a4,184(sp)
   13e54:	00700693          	li	a3,7
   13e58:	00e6de63          	ble	a4,a3,13e74 <_vfprintf_r+0x9d8>
   13e5c:	0b010613          	addi	a2,sp,176
   13e60:	000a0593          	mv	a1,s4
   13e64:	000b8513          	mv	a0,s7
   13e68:	245040ef          	jal	ra,188ac <__sprint_r>
   13e6c:	940510e3          	bnez	a0,137ac <_vfprintf_r+0x310>
   13e70:	0c013783          	ld	a5,192(sp)
   13e74:	01812c83          	lw	s9,24(sp)
   13e78:	00812703          	lw	a4,8(sp)
   13e7c:	00ecd463          	ble	a4,s9,13e84 <_vfprintf_r+0x9e8>
   13e80:	00070c93          	mv	s9,a4
   13e84:	01c12703          	lw	a4,28(sp)
   13e88:	0197073b          	addw	a4,a4,s9
   13e8c:	00e12e23          	sw	a4,28(sp)
   13e90:	52079863          	bnez	a5,143c0 <_vfprintf_r+0xf24>
   13e94:	0009c783          	lbu	a5,0(s3)
   13e98:	0a012c23          	sw	zero,184(sp)
   13e9c:	000b0893          	mv	a7,s6
   13ea0:	f2079263          	bnez	a5,135c4 <_vfprintf_r+0x128>
   13ea4:	00098413          	mv	s0,s3
   13ea8:	f80ff06f          	j	13628 <_vfprintf_r+0x18c>
   13eac:	00060463          	beqz	a2,13eb4 <_vfprintf_r+0xa18>
   13eb0:	22c0106f          	j	150dc <_vfprintf_r+0x1c40>
   13eb4:	010c7793          	andi	a5,s8,16
   13eb8:	12078e63          	beqz	a5,13ff4 <_vfprintf_r+0xb58>
   13ebc:	02813703          	ld	a4,40(sp)
   13ec0:	00073783          	ld	a5,0(a4)
   13ec4:	00870713          	addi	a4,a4,8
   13ec8:	02e13423          	sd	a4,40(sp)
   13ecc:	1407c0e3          	bltz	a5,1480c <_vfprintf_r+0x1370>
   13ed0:	08f14603          	lbu	a2,143(sp)
   13ed4:	bc044ee3          	bltz	s0,13ab0 <_vfprintf_r+0x614>
   13ed8:	f7fc7c13          	andi	s8,s8,-129
   13edc:	ae0798e3          	bnez	a5,139cc <_vfprintf_r+0x530>
   13ee0:	6e041a63          	bnez	s0,145d4 <_vfprintf_r+0x1138>
   13ee4:	00000413          	li	s0,0
   13ee8:	02012023          	sw	zero,32(sp)
   13eec:	000b0913          	mv	s2,s6
   13ef0:	9a9ff06f          	j	13898 <_vfprintf_r+0x3fc>
   13ef4:	040c6c13          	ori	s8,s8,64
   13ef8:	f60ff06f          	j	13658 <_vfprintf_r+0x1bc>
   13efc:	00060463          	beqz	a2,13f04 <_vfprintf_r+0xa68>
   13f00:	1d40106f          	j	150d4 <_vfprintf_r+0x1c38>
   13f04:	02813783          	ld	a5,40(sp)
   13f08:	00100913          	li	s2,1
   13f0c:	0007b787          	fld	fa5,0(a5)
   13f10:	00878793          	addi	a5,a5,8
   13f14:	01113023          	sd	a7,0(sp)
   13f18:	04f13c27          	fsd	fa5,88(sp)
   13f1c:	05813c83          	ld	s9,88(sp)
   13f20:	02f13423          	sd	a5,40(sp)
   13f24:	f20c8553          	fmv.d.x	fa0,s9
   13f28:	6f4040ef          	jal	ra,1861c <__fpclassifyd>
   13f2c:	00013883          	ld	a7,0(sp)
   13f30:	0f251ce3          	bne	a0,s2,14828 <_vfprintf_r+0x138c>
   13f34:	f20007d3          	fmv.d.x	fa5,zero
   13f38:	f20c8753          	fmv.d.x	fa4,s9
   13f3c:	a2f717d3          	flt.d	a5,fa4,fa5
   13f40:	600792e3          	bnez	a5,14d44 <_vfprintf_r+0x18a8>
   13f44:	08f14603          	lbu	a2,143(sp)
   13f48:	04700793          	li	a5,71
   13f4c:	3da7d8e3          	ble	s10,a5,14b1c <_vfprintf_r+0x1680>
   13f50:	0001b937          	lui	s2,0x1b
   13f54:	ae890913          	addi	s2,s2,-1304 # 1aae8 <zeroes.4137+0x28>
   13f58:	00300793          	li	a5,3
   13f5c:	00f12423          	sw	a5,8(sp)
   13f60:	f7fc7c13          	andi	s8,s8,-129
   13f64:	02f12023          	sw	a5,32(sp)
   13f68:	00000413          	li	s0,0
   13f6c:	04012623          	sw	zero,76(sp)
   13f70:	941ff06f          	j	138b0 <_vfprintf_r+0x414>
   13f74:	008c6c13          	ori	s8,s8,8
   13f78:	ee0ff06f          	j	13658 <_vfprintf_r+0x1bc>
   13f7c:	00060463          	beqz	a2,13f84 <_vfprintf_r+0xae8>
   13f80:	1280106f          	j	150a8 <_vfprintf_r+0x1c0c>
   13f84:	0001b7b7          	lui	a5,0x1b
   13f88:	b1878793          	addi	a5,a5,-1256 # 1ab18 <zeroes.4137+0x58>
   13f8c:	02f13c23          	sd	a5,56(sp)
   13f90:	010c7793          	andi	a5,s8,16
   13f94:	b40792e3          	bnez	a5,13ad8 <_vfprintf_r+0x63c>
   13f98:	040c7793          	andi	a5,s8,64
   13f9c:	02813703          	ld	a4,40(sp)
   13fa0:	1c0784e3          	beqz	a5,14968 <_vfprintf_r+0x14cc>
   13fa4:	00075783          	lhu	a5,0(a4)
   13fa8:	00870713          	addi	a4,a4,8
   13fac:	02e13423          	sd	a4,40(sp)
   13fb0:	b39ff06f          	j	13ae8 <_vfprintf_r+0x64c>
   13fb4:	00060463          	beqz	a2,13fbc <_vfprintf_r+0xb20>
   13fb8:	10c0106f          	j	150c4 <_vfprintf_r+0x1c28>
   13fbc:	010c7793          	andi	a5,s8,16
   13fc0:	1a078ce3          	beqz	a5,14978 <_vfprintf_r+0x14dc>
   13fc4:	02813683          	ld	a3,40(sp)
   13fc8:	01c12703          	lw	a4,28(sp)
   13fcc:	0006b783          	ld	a5,0(a3)
   13fd0:	00868693          	addi	a3,a3,8
   13fd4:	02d13423          	sd	a3,40(sp)
   13fd8:	00e7b023          	sd	a4,0(a5)
   13fdc:	de0ff06f          	j	135bc <_vfprintf_r+0x120>
   13fe0:	00060463          	beqz	a2,13fe8 <_vfprintf_r+0xb4c>
   13fe4:	0d40106f          	j	150b8 <_vfprintf_r+0x1c1c>
   13fe8:	010c6c13          	ori	s8,s8,16
   13fec:	010c7793          	andi	a5,s8,16
   13ff0:	ec0796e3          	bnez	a5,13ebc <_vfprintf_r+0xa20>
   13ff4:	040c7793          	andi	a5,s8,64
   13ff8:	02813703          	ld	a4,40(sp)
   13ffc:	1a0780e3          	beqz	a5,1499c <_vfprintf_r+0x1500>
   14000:	00071783          	lh	a5,0(a4)
   14004:	00870713          	addi	a4,a4,8
   14008:	02e13423          	sd	a4,40(sp)
   1400c:	ec1ff06f          	j	13ecc <_vfprintf_r+0xa30>
   14010:	0001b737          	lui	a4,0x1b
   14014:	b1870713          	addi	a4,a4,-1256 # 1ab18 <zeroes.4137+0x58>
   14018:	00000613          	li	a2,0
   1401c:	02e13c23          	sd	a4,56(sp)
   14020:	07800d13          	li	s10,120
   14024:	ee0ff06f          	j	13704 <_vfprintf_r+0x268>
   14028:	00060463          	beqz	a2,14030 <_vfprintf_r+0xb94>
   1402c:	0c00106f          	j	150ec <_vfprintf_r+0x1c50>
   14030:	f60d0263          	beqz	s10,13794 <_vfprintf_r+0x2f8>
   14034:	00100793          	li	a5,1
   14038:	00f12423          	sw	a5,8(sp)
   1403c:	0da10423          	sb	s10,200(sp)
   14040:	080107a3          	sb	zero,143(sp)
   14044:	00000613          	li	a2,0
   14048:	02f12023          	sw	a5,32(sp)
   1404c:	00000413          	li	s0,0
   14050:	04012623          	sw	zero,76(sp)
   14054:	0c810913          	addi	s2,sp,200
   14058:	afdff06f          	j	13b54 <_vfprintf_r+0x6b8>
   1405c:	02e13423          	sd	a4,40(sp)
   14060:	0001b737          	lui	a4,0x1b
   14064:	b1870713          	addi	a4,a4,-1256 # 1ab18 <zeroes.4137+0x58>
   14068:	00068c13          	mv	s8,a3
   1406c:	02e13c23          	sd	a4,56(sp)
   14070:	07800d13          	li	s10,120
   14074:	3a079a63          	bnez	a5,14428 <_vfprintf_r+0xf8c>
   14078:	00000613          	li	a2,0
   1407c:	00200793          	li	a5,2
   14080:	00100713          	li	a4,1
   14084:	54e78863          	beq	a5,a4,145d4 <_vfprintf_r+0x1138>
   14088:	00200713          	li	a4,2
   1408c:	e6e78a63          	beq	a5,a4,13700 <_vfprintf_r+0x264>
   14090:	00000793          	li	a5,0
   14094:	fc4ff06f          	j	13858 <_vfprintf_r+0x3bc>
   14098:	0c013783          	ld	a5,192(sp)
   1409c:	ba1ff06f          	j	13c3c <_vfprintf_r+0x7a0>
   140a0:	07012683          	lw	a3,112(sp)
   140a4:	00100713          	li	a4,1
   140a8:	00178793          	addi	a5,a5,1
   140ac:	6cd75663          	ble	a3,a4,14778 <_vfprintf_r+0x12dc>
   140b0:	0b812703          	lw	a4,184(sp)
   140b4:	00100693          	li	a3,1
   140b8:	00d8b423          	sd	a3,8(a7)
   140bc:	0017071b          	addiw	a4,a4,1
   140c0:	0128b023          	sd	s2,0(a7)
   140c4:	0cf13023          	sd	a5,192(sp)
   140c8:	0ae12c23          	sw	a4,184(sp)
   140cc:	00700693          	li	a3,7
   140d0:	01088893          	addi	a7,a7,16
   140d4:	6ce6ca63          	blt	a3,a4,147a8 <_vfprintf_r+0x130c>
   140d8:	06813683          	ld	a3,104(sp)
   140dc:	06013603          	ld	a2,96(sp)
   140e0:	0017071b          	addiw	a4,a4,1
   140e4:	00f687b3          	add	a5,a3,a5
   140e8:	00d8b423          	sd	a3,8(a7)
   140ec:	00c8b023          	sd	a2,0(a7)
   140f0:	0cf13023          	sd	a5,192(sp)
   140f4:	0ae12c23          	sw	a4,184(sp)
   140f8:	00700693          	li	a3,7
   140fc:	01088893          	addi	a7,a7,16
   14100:	6ee6c263          	blt	a3,a4,147e4 <_vfprintf_r+0x1348>
   14104:	f20007d3          	fmv.d.x	fa5,zero
   14108:	05813707          	fld	fa4,88(sp)
   1410c:	a2f726d3          	feq.d	a3,fa4,fa5
   14110:	40069c63          	bnez	a3,14528 <_vfprintf_r+0x108c>
   14114:	07012683          	lw	a3,112(sp)
   14118:	00190913          	addi	s2,s2,1
   1411c:	0017071b          	addiw	a4,a4,1
   14120:	fff6869b          	addiw	a3,a3,-1
   14124:	00d787b3          	add	a5,a5,a3
   14128:	0128b023          	sd	s2,0(a7)
   1412c:	00d8b423          	sd	a3,8(a7)
   14130:	0cf13023          	sd	a5,192(sp)
   14134:	0ae12c23          	sw	a4,184(sp)
   14138:	00700693          	li	a3,7
   1413c:	26e6c063          	blt	a3,a4,1439c <_vfprintf_r+0xf00>
   14140:	01088893          	addi	a7,a7,16
   14144:	07412683          	lw	a3,116(sp)
   14148:	0a010613          	addi	a2,sp,160
   1414c:	0017071b          	addiw	a4,a4,1
   14150:	00f687b3          	add	a5,a3,a5
   14154:	00c8b023          	sd	a2,0(a7)
   14158:	00d8b423          	sd	a3,8(a7)
   1415c:	0cf13023          	sd	a5,192(sp)
   14160:	0ae12c23          	sw	a4,184(sp)
   14164:	00700693          	li	a3,7
   14168:	c4e6d2e3          	ble	a4,a3,13dac <_vfprintf_r+0x910>
   1416c:	0b010613          	addi	a2,sp,176
   14170:	000a0593          	mv	a1,s4
   14174:	000b8513          	mv	a0,s7
   14178:	734040ef          	jal	ra,188ac <__sprint_r>
   1417c:	e2051863          	bnez	a0,137ac <_vfprintf_r+0x310>
   14180:	0c013783          	ld	a5,192(sp)
   14184:	000b0893          	mv	a7,s6
   14188:	c29ff06f          	j	13db0 <_vfprintf_r+0x914>
   1418c:	06500713          	li	a4,101
   14190:	f1a758e3          	ble	s10,a4,140a0 <_vfprintf_r+0xc04>
   14194:	f20007d3          	fmv.d.x	fa5,zero
   14198:	05813707          	fld	fa4,88(sp)
   1419c:	a2f72753          	feq.d	a4,fa4,fa5
   141a0:	28070863          	beqz	a4,14430 <_vfprintf_r+0xf94>
   141a4:	0b812703          	lw	a4,184(sp)
   141a8:	0001b6b7          	lui	a3,0x1b
   141ac:	b3868693          	addi	a3,a3,-1224 # 1ab38 <zeroes.4137+0x78>
   141b0:	00d8b023          	sd	a3,0(a7)
   141b4:	00178793          	addi	a5,a5,1
   141b8:	00100693          	li	a3,1
   141bc:	0017071b          	addiw	a4,a4,1
   141c0:	00d8b423          	sd	a3,8(a7)
   141c4:	0cf13023          	sd	a5,192(sp)
   141c8:	0ae12c23          	sw	a4,184(sp)
   141cc:	00700693          	li	a3,7
   141d0:	01088893          	addi	a7,a7,16
   141d4:	7ee6ca63          	blt	a3,a4,149c8 <_vfprintf_r+0x152c>
   141d8:	09812703          	lw	a4,152(sp)
   141dc:	07012683          	lw	a3,112(sp)
   141e0:	00d74663          	blt	a4,a3,141ec <_vfprintf_r+0xd50>
   141e4:	001c7713          	andi	a4,s8,1
   141e8:	bc0704e3          	beqz	a4,13db0 <_vfprintf_r+0x914>
   141ec:	06013703          	ld	a4,96(sp)
   141f0:	06813683          	ld	a3,104(sp)
   141f4:	01088893          	addi	a7,a7,16
   141f8:	fee8b823          	sd	a4,-16(a7)
   141fc:	0b812703          	lw	a4,184(sp)
   14200:	00d787b3          	add	a5,a5,a3
   14204:	fed8bc23          	sd	a3,-8(a7)
   14208:	0017071b          	addiw	a4,a4,1
   1420c:	0cf13023          	sd	a5,192(sp)
   14210:	0ae12c23          	sw	a4,184(sp)
   14214:	00700693          	li	a3,7
   14218:	1ce6c8e3          	blt	a3,a4,14be8 <_vfprintf_r+0x174c>
   1421c:	07012703          	lw	a4,112(sp)
   14220:	fff7041b          	addiw	s0,a4,-1
   14224:	b88056e3          	blez	s0,13db0 <_vfprintf_r+0x914>
   14228:	01000713          	li	a4,16
   1422c:	36875c63          	ble	s0,a4,145a4 <_vfprintf_r+0x1108>
   14230:	01000913          	li	s2,16
   14234:	0b812703          	lw	a4,184(sp)
   14238:	00913823          	sd	s1,16(sp)
   1423c:	00700d13          	li	s10,7
   14240:	00090693          	mv	a3,s2
   14244:	00c0006f          	j	14250 <_vfprintf_r+0xdb4>
   14248:	ff04041b          	addiw	s0,s0,-16
   1424c:	3686d063          	ble	s0,a3,145ac <_vfprintf_r+0x1110>
   14250:	01078793          	addi	a5,a5,16
   14254:	0017071b          	addiw	a4,a4,1
   14258:	0098b023          	sd	s1,0(a7)
   1425c:	0128b423          	sd	s2,8(a7)
   14260:	0cf13023          	sd	a5,192(sp)
   14264:	0ae12c23          	sw	a4,184(sp)
   14268:	01088893          	addi	a7,a7,16
   1426c:	fced5ee3          	ble	a4,s10,14248 <_vfprintf_r+0xdac>
   14270:	0b010613          	addi	a2,sp,176
   14274:	000a0593          	mv	a1,s4
   14278:	000b8513          	mv	a0,s7
   1427c:	00d13023          	sd	a3,0(sp)
   14280:	62c040ef          	jal	ra,188ac <__sprint_r>
   14284:	d2051463          	bnez	a0,137ac <_vfprintf_r+0x310>
   14288:	0c013783          	ld	a5,192(sp)
   1428c:	0b812703          	lw	a4,184(sp)
   14290:	000b0893          	mv	a7,s6
   14294:	00013683          	ld	a3,0(sp)
   14298:	fb1ff06f          	j	14248 <_vfprintf_r+0xdac>
   1429c:	01812703          	lw	a4,24(sp)
   142a0:	00812683          	lw	a3,8(sp)
   142a4:	40d70cbb          	subw	s9,a4,a3
   142a8:	a19056e3          	blez	s9,13cb4 <_vfprintf_r+0x818>
   142ac:	01000713          	li	a4,16
   142b0:	2f975ee3          	ble	s9,a4,14dac <_vfprintf_r+0x1910>
   142b4:	01000813          	li	a6,16
   142b8:	0b812703          	lw	a4,184(sp)
   142bc:	00913823          	sd	s1,16(sp)
   142c0:	00700313          	li	t1,7
   142c4:	00080d93          	mv	s11,a6
   142c8:	00c0006f          	j	142d4 <_vfprintf_r+0xe38>
   142cc:	ff0c8c9b          	addiw	s9,s9,-16
   142d0:	059dde63          	ble	s9,s11,1432c <_vfprintf_r+0xe90>
   142d4:	01078793          	addi	a5,a5,16
   142d8:	0017071b          	addiw	a4,a4,1
   142dc:	0098b023          	sd	s1,0(a7)
   142e0:	0108b423          	sd	a6,8(a7)
   142e4:	0cf13023          	sd	a5,192(sp)
   142e8:	0ae12c23          	sw	a4,184(sp)
   142ec:	01088893          	addi	a7,a7,16
   142f0:	fce35ee3          	ble	a4,t1,142cc <_vfprintf_r+0xe30>
   142f4:	0b010613          	addi	a2,sp,176
   142f8:	000a0593          	mv	a1,s4
   142fc:	000b8513          	mv	a0,s7
   14300:	04613023          	sd	t1,64(sp)
   14304:	01013023          	sd	a6,0(sp)
   14308:	5a4040ef          	jal	ra,188ac <__sprint_r>
   1430c:	ca051063          	bnez	a0,137ac <_vfprintf_r+0x310>
   14310:	ff0c8c9b          	addiw	s9,s9,-16
   14314:	0c013783          	ld	a5,192(sp)
   14318:	0b812703          	lw	a4,184(sp)
   1431c:	000b0893          	mv	a7,s6
   14320:	04013303          	ld	t1,64(sp)
   14324:	00013803          	ld	a6,0(sp)
   14328:	fb9dc6e3          	blt	s11,s9,142d4 <_vfprintf_r+0xe38>
   1432c:	01013603          	ld	a2,16(sp)
   14330:	019787b3          	add	a5,a5,s9
   14334:	0017071b          	addiw	a4,a4,1
   14338:	00c8b023          	sd	a2,0(a7)
   1433c:	0198b423          	sd	s9,8(a7)
   14340:	0cf13023          	sd	a5,192(sp)
   14344:	0ae12c23          	sw	a4,184(sp)
   14348:	00700693          	li	a3,7
   1434c:	01088893          	addi	a7,a7,16
   14350:	96e6d2e3          	ble	a4,a3,13cb4 <_vfprintf_r+0x818>
   14354:	0b010613          	addi	a2,sp,176
   14358:	000a0593          	mv	a1,s4
   1435c:	000b8513          	mv	a0,s7
   14360:	54c040ef          	jal	ra,188ac <__sprint_r>
   14364:	c4051463          	bnez	a0,137ac <_vfprintf_r+0x310>
   14368:	0c013783          	ld	a5,192(sp)
   1436c:	000b0893          	mv	a7,s6
   14370:	945ff06f          	j	13cb4 <_vfprintf_r+0x818>
   14374:	00913823          	sd	s1,16(sp)
   14378:	01013683          	ld	a3,16(sp)
   1437c:	008787b3          	add	a5,a5,s0
   14380:	0017071b          	addiw	a4,a4,1
   14384:	00d8b023          	sd	a3,0(a7)
   14388:	0088b423          	sd	s0,8(a7)
   1438c:	0cf13023          	sd	a5,192(sp)
   14390:	0ae12c23          	sw	a4,184(sp)
   14394:	00700693          	li	a3,7
   14398:	dae6d4e3          	ble	a4,a3,14140 <_vfprintf_r+0xca4>
   1439c:	0b010613          	addi	a2,sp,176
   143a0:	000a0593          	mv	a1,s4
   143a4:	000b8513          	mv	a0,s7
   143a8:	504040ef          	jal	ra,188ac <__sprint_r>
   143ac:	c0051063          	bnez	a0,137ac <_vfprintf_r+0x310>
   143b0:	0c013783          	ld	a5,192(sp)
   143b4:	0b812703          	lw	a4,184(sp)
   143b8:	000b0893          	mv	a7,s6
   143bc:	d89ff06f          	j	14144 <_vfprintf_r+0xca8>
   143c0:	0b010613          	addi	a2,sp,176
   143c4:	000a0593          	mv	a1,s4
   143c8:	000b8513          	mv	a0,s7
   143cc:	4e0040ef          	jal	ra,188ac <__sprint_r>
   143d0:	ac0502e3          	beqz	a0,13e94 <_vfprintf_r+0x9f8>
   143d4:	bd8ff06f          	j	137ac <_vfprintf_r+0x310>
   143d8:	0b010613          	addi	a2,sp,176
   143dc:	000a0593          	mv	a1,s4
   143e0:	000b8513          	mv	a0,s7
   143e4:	4c8040ef          	jal	ra,188ac <__sprint_r>
   143e8:	bc051263          	bnez	a0,137ac <_vfprintf_r+0x310>
   143ec:	0c013783          	ld	a5,192(sp)
   143f0:	000b0893          	mv	a7,s6
   143f4:	87dff06f          	j	13c70 <_vfprintf_r+0x7d4>
   143f8:	0b010613          	addi	a2,sp,176
   143fc:	000a0593          	mv	a1,s4
   14400:	000b8513          	mv	a0,s7
   14404:	4a8040ef          	jal	ra,188ac <__sprint_r>
   14408:	ba051263          	bnez	a0,137ac <_vfprintf_r+0x310>
   1440c:	0c013783          	ld	a5,192(sp)
   14410:	000b0893          	mv	a7,s6
   14414:	895ff06f          	j	13ca8 <_vfprintf_r+0x80c>
   14418:	080107a3          	sb	zero,143(sp)
   1441c:	c4044ce3          	bltz	s0,14074 <_vfprintf_r+0xbd8>
   14420:	f7fc7c13          	andi	s8,s8,-129
   14424:	ac078a63          	beqz	a5,136f8 <_vfprintf_r+0x25c>
   14428:	00000613          	li	a2,0
   1442c:	ad8ff06f          	j	13704 <_vfprintf_r+0x268>
   14430:	09812403          	lw	s0,152(sp)
   14434:	5a805c63          	blez	s0,149ec <_vfprintf_r+0x1550>
   14438:	04c12703          	lw	a4,76(sp)
   1443c:	07012683          	lw	a3,112(sp)
   14440:	00070413          	mv	s0,a4
   14444:	00e6d463          	ble	a4,a3,1444c <_vfprintf_r+0xfb0>
   14448:	00068413          	mv	s0,a3
   1444c:	02805663          	blez	s0,14478 <_vfprintf_r+0xfdc>
   14450:	0b812703          	lw	a4,184(sp)
   14454:	008787b3          	add	a5,a5,s0
   14458:	0128b023          	sd	s2,0(a7)
   1445c:	0017071b          	addiw	a4,a4,1
   14460:	0088b423          	sd	s0,8(a7)
   14464:	0cf13023          	sd	a5,192(sp)
   14468:	0ae12c23          	sw	a4,184(sp)
   1446c:	00700693          	li	a3,7
   14470:	01088893          	addi	a7,a7,16
   14474:	6ae6ca63          	blt	a3,a4,14b28 <_vfprintf_r+0x168c>
   14478:	020448e3          	bltz	s0,14ca8 <_vfprintf_r+0x180c>
   1447c:	04c12703          	lw	a4,76(sp)
   14480:	4087043b          	subw	s0,a4,s0
   14484:	1a805c63          	blez	s0,1463c <_vfprintf_r+0x11a0>
   14488:	01000713          	li	a4,16
   1448c:	16875263          	ble	s0,a4,145f0 <_vfprintf_r+0x1154>
   14490:	01000d13          	li	s10,16
   14494:	0b812703          	lw	a4,184(sp)
   14498:	00913823          	sd	s1,16(sp)
   1449c:	00700693          	li	a3,7
   144a0:	000d0813          	mv	a6,s10
   144a4:	00c0006f          	j	144b0 <_vfprintf_r+0x1014>
   144a8:	ff04041b          	addiw	s0,s0,-16
   144ac:	14885663          	ble	s0,a6,145f8 <_vfprintf_r+0x115c>
   144b0:	01078793          	addi	a5,a5,16
   144b4:	0017071b          	addiw	a4,a4,1
   144b8:	0098b023          	sd	s1,0(a7)
   144bc:	01a8b423          	sd	s10,8(a7)
   144c0:	0cf13023          	sd	a5,192(sp)
   144c4:	0ae12c23          	sw	a4,184(sp)
   144c8:	01088893          	addi	a7,a7,16
   144cc:	fce6dee3          	ble	a4,a3,144a8 <_vfprintf_r+0x100c>
   144d0:	0b010613          	addi	a2,sp,176
   144d4:	000a0593          	mv	a1,s4
   144d8:	000b8513          	mv	a0,s7
   144dc:	03013023          	sd	a6,32(sp)
   144e0:	00d13023          	sd	a3,0(sp)
   144e4:	3c8040ef          	jal	ra,188ac <__sprint_r>
   144e8:	ac051263          	bnez	a0,137ac <_vfprintf_r+0x310>
   144ec:	0c013783          	ld	a5,192(sp)
   144f0:	0b812703          	lw	a4,184(sp)
   144f4:	000b0893          	mv	a7,s6
   144f8:	02013803          	ld	a6,32(sp)
   144fc:	00013683          	ld	a3,0(sp)
   14500:	fa9ff06f          	j	144a8 <_vfprintf_r+0x100c>
   14504:	0b010613          	addi	a2,sp,176
   14508:	000a0593          	mv	a1,s4
   1450c:	000b8513          	mv	a0,s7
   14510:	39c040ef          	jal	ra,188ac <__sprint_r>
   14514:	a8051c63          	bnez	a0,137ac <_vfprintf_r+0x310>
   14518:	08f14603          	lbu	a2,143(sp)
   1451c:	0c013783          	ld	a5,192(sp)
   14520:	000b0893          	mv	a7,s6
   14524:	f18ff06f          	j	13c3c <_vfprintf_r+0x7a0>
   14528:	07012683          	lw	a3,112(sp)
   1452c:	fff6841b          	addiw	s0,a3,-1
   14530:	c0805ae3          	blez	s0,14144 <_vfprintf_r+0xca8>
   14534:	01000693          	li	a3,16
   14538:	e286dee3          	ble	s0,a3,14374 <_vfprintf_r+0xed8>
   1453c:	01000913          	li	s2,16
   14540:	00913823          	sd	s1,16(sp)
   14544:	00700d13          	li	s10,7
   14548:	00090693          	mv	a3,s2
   1454c:	00c0006f          	j	14558 <_vfprintf_r+0x10bc>
   14550:	ff04041b          	addiw	s0,s0,-16
   14554:	e286d2e3          	ble	s0,a3,14378 <_vfprintf_r+0xedc>
   14558:	01078793          	addi	a5,a5,16
   1455c:	0017071b          	addiw	a4,a4,1
   14560:	0098b023          	sd	s1,0(a7)
   14564:	0128b423          	sd	s2,8(a7)
   14568:	0cf13023          	sd	a5,192(sp)
   1456c:	0ae12c23          	sw	a4,184(sp)
   14570:	01088893          	addi	a7,a7,16
   14574:	fced5ee3          	ble	a4,s10,14550 <_vfprintf_r+0x10b4>
   14578:	0b010613          	addi	a2,sp,176
   1457c:	000a0593          	mv	a1,s4
   14580:	000b8513          	mv	a0,s7
   14584:	00d13023          	sd	a3,0(sp)
   14588:	324040ef          	jal	ra,188ac <__sprint_r>
   1458c:	a2051063          	bnez	a0,137ac <_vfprintf_r+0x310>
   14590:	0c013783          	ld	a5,192(sp)
   14594:	0b812703          	lw	a4,184(sp)
   14598:	000b0893          	mv	a7,s6
   1459c:	00013683          	ld	a3,0(sp)
   145a0:	fb1ff06f          	j	14550 <_vfprintf_r+0x10b4>
   145a4:	0b812703          	lw	a4,184(sp)
   145a8:	00913823          	sd	s1,16(sp)
   145ac:	01013683          	ld	a3,16(sp)
   145b0:	008787b3          	add	a5,a5,s0
   145b4:	0088b423          	sd	s0,8(a7)
   145b8:	00d8b023          	sd	a3,0(a7)
   145bc:	0017071b          	addiw	a4,a4,1
   145c0:	0cf13023          	sd	a5,192(sp)
   145c4:	0ae12c23          	sw	a4,184(sp)
   145c8:	00700693          	li	a3,7
   145cc:	fee6d063          	ble	a4,a3,13dac <_vfprintf_r+0x910>
   145d0:	b9dff06f          	j	1416c <_vfprintf_r+0xcd0>
   145d4:	00000793          	li	a5,0
   145d8:	0307879b          	addiw	a5,a5,48
   145dc:	0ef107a3          	sb	a5,239(sp)
   145e0:	07813783          	ld	a5,120(sp)
   145e4:	0ef10913          	addi	s2,sp,239
   145e8:	02f12023          	sw	a5,32(sp)
   145ec:	aacff06f          	j	13898 <_vfprintf_r+0x3fc>
   145f0:	0b812703          	lw	a4,184(sp)
   145f4:	00913823          	sd	s1,16(sp)
   145f8:	01013683          	ld	a3,16(sp)
   145fc:	008787b3          	add	a5,a5,s0
   14600:	0017071b          	addiw	a4,a4,1
   14604:	00d8b023          	sd	a3,0(a7)
   14608:	0088b423          	sd	s0,8(a7)
   1460c:	0cf13023          	sd	a5,192(sp)
   14610:	0ae12c23          	sw	a4,184(sp)
   14614:	00700693          	li	a3,7
   14618:	01088893          	addi	a7,a7,16
   1461c:	02e6d063          	ble	a4,a3,1463c <_vfprintf_r+0x11a0>
   14620:	0b010613          	addi	a2,sp,176
   14624:	000a0593          	mv	a1,s4
   14628:	000b8513          	mv	a0,s7
   1462c:	280040ef          	jal	ra,188ac <__sprint_r>
   14630:	96051e63          	bnez	a0,137ac <_vfprintf_r+0x310>
   14634:	0c013783          	ld	a5,192(sp)
   14638:	000b0893          	mv	a7,s6
   1463c:	04c12d03          	lw	s10,76(sp)
   14640:	09812703          	lw	a4,152(sp)
   14644:	07012683          	lw	a3,112(sp)
   14648:	01a90d33          	add	s10,s2,s10
   1464c:	0cd74a63          	blt	a4,a3,14720 <_vfprintf_r+0x1284>
   14650:	001c7693          	andi	a3,s8,1
   14654:	0c069663          	bnez	a3,14720 <_vfprintf_r+0x1284>
   14658:	07012683          	lw	a3,112(sp)
   1465c:	00d90433          	add	s0,s2,a3
   14660:	41a40433          	sub	s0,s0,s10
   14664:	40e6873b          	subw	a4,a3,a4
   14668:	0004041b          	sext.w	s0,s0
   1466c:	00875463          	ble	s0,a4,14674 <_vfprintf_r+0x11d8>
   14670:	00070413          	mv	s0,a4
   14674:	02805663          	blez	s0,146a0 <_vfprintf_r+0x1204>
   14678:	0b812683          	lw	a3,184(sp)
   1467c:	008787b3          	add	a5,a5,s0
   14680:	01a8b023          	sd	s10,0(a7)
   14684:	0016869b          	addiw	a3,a3,1
   14688:	0088b423          	sd	s0,8(a7)
   1468c:	0cf13023          	sd	a5,192(sp)
   14690:	0ad12c23          	sw	a3,184(sp)
   14694:	00700613          	li	a2,7
   14698:	01088893          	addi	a7,a7,16
   1469c:	4cd64263          	blt	a2,a3,14b60 <_vfprintf_r+0x16c4>
   146a0:	60044863          	bltz	s0,14cb0 <_vfprintf_r+0x1814>
   146a4:	4087043b          	subw	s0,a4,s0
   146a8:	f0805463          	blez	s0,13db0 <_vfprintf_r+0x914>
   146ac:	01000713          	li	a4,16
   146b0:	ee875ae3          	ble	s0,a4,145a4 <_vfprintf_r+0x1108>
   146b4:	01000913          	li	s2,16
   146b8:	0b812703          	lw	a4,184(sp)
   146bc:	00913823          	sd	s1,16(sp)
   146c0:	00700d13          	li	s10,7
   146c4:	00090693          	mv	a3,s2
   146c8:	00c0006f          	j	146d4 <_vfprintf_r+0x1238>
   146cc:	ff04041b          	addiw	s0,s0,-16
   146d0:	ec86dee3          	ble	s0,a3,145ac <_vfprintf_r+0x1110>
   146d4:	01078793          	addi	a5,a5,16
   146d8:	0017071b          	addiw	a4,a4,1
   146dc:	0098b023          	sd	s1,0(a7)
   146e0:	0128b423          	sd	s2,8(a7)
   146e4:	0cf13023          	sd	a5,192(sp)
   146e8:	0ae12c23          	sw	a4,184(sp)
   146ec:	01088893          	addi	a7,a7,16
   146f0:	fced5ee3          	ble	a4,s10,146cc <_vfprintf_r+0x1230>
   146f4:	0b010613          	addi	a2,sp,176
   146f8:	000a0593          	mv	a1,s4
   146fc:	000b8513          	mv	a0,s7
   14700:	00d13023          	sd	a3,0(sp)
   14704:	1a8040ef          	jal	ra,188ac <__sprint_r>
   14708:	8a051263          	bnez	a0,137ac <_vfprintf_r+0x310>
   1470c:	0c013783          	ld	a5,192(sp)
   14710:	0b812703          	lw	a4,184(sp)
   14714:	000b0893          	mv	a7,s6
   14718:	00013683          	ld	a3,0(sp)
   1471c:	fb1ff06f          	j	146cc <_vfprintf_r+0x1230>
   14720:	06013683          	ld	a3,96(sp)
   14724:	06813603          	ld	a2,104(sp)
   14728:	01088893          	addi	a7,a7,16
   1472c:	fed8b823          	sd	a3,-16(a7)
   14730:	0b812683          	lw	a3,184(sp)
   14734:	00c787b3          	add	a5,a5,a2
   14738:	fec8bc23          	sd	a2,-8(a7)
   1473c:	0016869b          	addiw	a3,a3,1
   14740:	0cf13023          	sd	a5,192(sp)
   14744:	0ad12c23          	sw	a3,184(sp)
   14748:	00700613          	li	a2,7
   1474c:	f0d656e3          	ble	a3,a2,14658 <_vfprintf_r+0x11bc>
   14750:	0b010613          	addi	a2,sp,176
   14754:	000a0593          	mv	a1,s4
   14758:	000b8513          	mv	a0,s7
   1475c:	150040ef          	jal	ra,188ac <__sprint_r>
   14760:	00050463          	beqz	a0,14768 <_vfprintf_r+0x12cc>
   14764:	848ff06f          	j	137ac <_vfprintf_r+0x310>
   14768:	09812703          	lw	a4,152(sp)
   1476c:	0c013783          	ld	a5,192(sp)
   14770:	000b0893          	mv	a7,s6
   14774:	ee5ff06f          	j	14658 <_vfprintf_r+0x11bc>
   14778:	00ec7733          	and	a4,s8,a4
   1477c:	92071ae3          	bnez	a4,140b0 <_vfprintf_r+0xc14>
   14780:	0b812703          	lw	a4,184(sp)
   14784:	0128b023          	sd	s2,0(a7)
   14788:	00100693          	li	a3,1
   1478c:	0017071b          	addiw	a4,a4,1
   14790:	99dff06f          	j	1412c <_vfprintf_r+0xc90>
   14794:	02813783          	ld	a5,40(sp)
   14798:	00878713          	addi	a4,a5,8
   1479c:	0007e783          	lwu	a5,0(a5)
   147a0:	a0045e63          	bgez	s0,139bc <_vfprintf_r+0x520>
   147a4:	b04ff06f          	j	13aa8 <_vfprintf_r+0x60c>
   147a8:	0b010613          	addi	a2,sp,176
   147ac:	000a0593          	mv	a1,s4
   147b0:	000b8513          	mv	a0,s7
   147b4:	0f8040ef          	jal	ra,188ac <__sprint_r>
   147b8:	00050463          	beqz	a0,147c0 <_vfprintf_r+0x1324>
   147bc:	ff1fe06f          	j	137ac <_vfprintf_r+0x310>
   147c0:	0c013783          	ld	a5,192(sp)
   147c4:	0b812703          	lw	a4,184(sp)
   147c8:	000b0893          	mv	a7,s6
   147cc:	90dff06f          	j	140d8 <_vfprintf_r+0xc3c>
   147d0:	02813783          	ld	a5,40(sp)
   147d4:	00878713          	addi	a4,a5,8
   147d8:	0007e783          	lwu	a5,0(a5)
   147dc:	86045063          	bgez	s0,1383c <_vfprintf_r+0x3a0>
   147e0:	a84ff06f          	j	13a64 <_vfprintf_r+0x5c8>
   147e4:	0b010613          	addi	a2,sp,176
   147e8:	000a0593          	mv	a1,s4
   147ec:	000b8513          	mv	a0,s7
   147f0:	0bc040ef          	jal	ra,188ac <__sprint_r>
   147f4:	00050463          	beqz	a0,147fc <_vfprintf_r+0x1360>
   147f8:	fb5fe06f          	j	137ac <_vfprintf_r+0x310>
   147fc:	0c013783          	ld	a5,192(sp)
   14800:	0b812703          	lw	a4,184(sp)
   14804:	000b0893          	mv	a7,s6
   14808:	8fdff06f          	j	14104 <_vfprintf_r+0xc68>
   1480c:	02d00713          	li	a4,45
   14810:	08e107a3          	sb	a4,143(sp)
   14814:	40f007b3          	neg	a5,a5
   14818:	4a044063          	bltz	s0,14cb8 <_vfprintf_r+0x181c>
   1481c:	f7fc7c13          	andi	s8,s8,-129
   14820:	02d00613          	li	a2,45
   14824:	9a8ff06f          	j	139cc <_vfprintf_r+0x530>
   14828:	05813507          	fld	fa0,88(sp)
   1482c:	01113023          	sd	a7,0(sp)
   14830:	5ed030ef          	jal	ra,1861c <__fpclassifyd>
   14834:	00013883          	ld	a7,0(sp)
   14838:	2a050463          	beqz	a0,14ae0 <_vfprintf_r+0x1644>
   1483c:	fff00793          	li	a5,-1
   14840:	fdfd7d93          	andi	s11,s10,-33
   14844:	62f40c63          	beq	s0,a5,14e7c <_vfprintf_r+0x19e0>
   14848:	04700793          	li	a5,71
   1484c:	62fd8263          	beq	s11,a5,14e70 <_vfprintf_r+0x19d4>
   14850:	05813703          	ld	a4,88(sp)
   14854:	100c6693          	ori	a3,s8,256
   14858:	00d12023          	sw	a3,0(sp)
   1485c:	42075793          	srai	a5,a4,0x20
   14860:	f2070453          	fmv.d.x	fs0,a4
   14864:	00000c93          	li	s9,0
   14868:	6607c663          	bltz	a5,14ed4 <_vfprintf_r+0x1a38>
   1486c:	06600793          	li	a5,102
   14870:	60fd0a63          	beq	s10,a5,14e84 <_vfprintf_r+0x19e8>
   14874:	04600793          	li	a5,70
   14878:	72fd0863          	beq	s10,a5,14fa8 <_vfprintf_r+0x1b0c>
   1487c:	fbbd859b          	addiw	a1,s11,-69
   14880:	0015b593          	seqz	a1,a1
   14884:	228405d3          	fmv.d	fa1,fs0
   14888:	00b405bb          	addw	a1,s0,a1
   1488c:	09c10793          	addi	a5,sp,156
   14890:	00058693          	mv	a3,a1
   14894:	0a810813          	addi	a6,sp,168
   14898:	09810713          	addi	a4,sp,152
   1489c:	00200613          	li	a2,2
   148a0:	000b8513          	mv	a0,s7
   148a4:	01113823          	sd	a7,16(sp)
   148a8:	00b13423          	sd	a1,8(sp)
   148ac:	73d000ef          	jal	ra,157e8 <_dtoa_r>
   148b0:	06700793          	li	a5,103
   148b4:	00050913          	mv	s2,a0
   148b8:	00813583          	ld	a1,8(sp)
   148bc:	01013883          	ld	a7,16(sp)
   148c0:	46fd0863          	beq	s10,a5,14d30 <_vfprintf_r+0x1894>
   148c4:	04700793          	li	a5,71
   148c8:	00b50733          	add	a4,a0,a1
   148cc:	48fd0a63          	beq	s10,a5,14d60 <_vfprintf_r+0x18c4>
   148d0:	f20007d3          	fmv.d.x	fa5,zero
   148d4:	00070793          	mv	a5,a4
   148d8:	a2f426d3          	feq.d	a3,fs0,fa5
   148dc:	02069263          	bnez	a3,14900 <_vfprintf_r+0x1464>
   148e0:	0a813783          	ld	a5,168(sp)
   148e4:	00e7fe63          	bleu	a4,a5,14900 <_vfprintf_r+0x1464>
   148e8:	03000613          	li	a2,48
   148ec:	00178693          	addi	a3,a5,1
   148f0:	0ad13423          	sd	a3,168(sp)
   148f4:	00c78023          	sb	a2,0(a5)
   148f8:	0a813783          	ld	a5,168(sp)
   148fc:	fee7e8e3          	bltu	a5,a4,148ec <_vfprintf_r+0x1450>
   14900:	412787b3          	sub	a5,a5,s2
   14904:	06f12823          	sw	a5,112(sp)
   14908:	04700793          	li	a5,71
   1490c:	46fd8663          	beq	s11,a5,14d78 <_vfprintf_r+0x18dc>
   14910:	06500793          	li	a5,101
   14914:	7ba7dc63          	ble	s10,a5,150cc <_vfprintf_r+0x1c30>
   14918:	06600793          	li	a5,102
   1491c:	60fd0263          	beq	s10,a5,14f20 <_vfprintf_r+0x1a84>
   14920:	09812783          	lw	a5,152(sp)
   14924:	04f12623          	sw	a5,76(sp)
   14928:	04c12703          	lw	a4,76(sp)
   1492c:	07012683          	lw	a3,112(sp)
   14930:	00070793          	mv	a5,a4
   14934:	5ad74663          	blt	a4,a3,14ee0 <_vfprintf_r+0x1a44>
   14938:	001c7c13          	andi	s8,s8,1
   1493c:	5c0c1463          	bnez	s8,14f04 <_vfprintf_r+0x1a68>
   14940:	76074863          	bltz	a4,150b0 <_vfprintf_r+0x1c14>
   14944:	04c12703          	lw	a4,76(sp)
   14948:	06700d13          	li	s10,103
   1494c:	02e12023          	sw	a4,32(sp)
   14950:	440c9063          	bnez	s9,14d90 <_vfprintf_r+0x18f4>
   14954:	08f14603          	lbu	a2,143(sp)
   14958:	00f12423          	sw	a5,8(sp)
   1495c:	00012c03          	lw	s8,0(sp)
   14960:	00000413          	li	s0,0
   14964:	f4dfe06f          	j	138b0 <_vfprintf_r+0x414>
   14968:	00076783          	lwu	a5,0(a4)
   1496c:	00870713          	addi	a4,a4,8
   14970:	02e13423          	sd	a4,40(sp)
   14974:	974ff06f          	j	13ae8 <_vfprintf_r+0x64c>
   14978:	02813703          	ld	a4,40(sp)
   1497c:	040c7c13          	andi	s8,s8,64
   14980:	00073783          	ld	a5,0(a4)
   14984:	00870713          	addi	a4,a4,8
   14988:	02e13423          	sd	a4,40(sp)
   1498c:	180c0263          	beqz	s8,14b10 <_vfprintf_r+0x1674>
   14990:	01c15703          	lhu	a4,28(sp)
   14994:	00e79023          	sh	a4,0(a5)
   14998:	c25fe06f          	j	135bc <_vfprintf_r+0x120>
   1499c:	00072783          	lw	a5,0(a4)
   149a0:	00870713          	addi	a4,a4,8
   149a4:	02e13423          	sd	a4,40(sp)
   149a8:	d24ff06f          	j	13ecc <_vfprintf_r+0xa30>
   149ac:	080107a3          	sb	zero,143(sp)
   149b0:	ec044463          	bltz	s0,14078 <_vfprintf_r+0xbdc>
   149b4:	f7fc7c13          	andi	s8,s8,-129
   149b8:	d41fe06f          	j	136f8 <_vfprintf_r+0x25c>
   149bc:	0b812703          	lw	a4,184(sp)
   149c0:	00913823          	sd	s1,16(sp)
   149c4:	b74ff06f          	j	13d38 <_vfprintf_r+0x89c>
   149c8:	0b010613          	addi	a2,sp,176
   149cc:	000a0593          	mv	a1,s4
   149d0:	000b8513          	mv	a0,s7
   149d4:	6d9030ef          	jal	ra,188ac <__sprint_r>
   149d8:	00050463          	beqz	a0,149e0 <_vfprintf_r+0x1544>
   149dc:	dd1fe06f          	j	137ac <_vfprintf_r+0x310>
   149e0:	0c013783          	ld	a5,192(sp)
   149e4:	000b0893          	mv	a7,s6
   149e8:	ff0ff06f          	j	141d8 <_vfprintf_r+0xd3c>
   149ec:	0b812703          	lw	a4,184(sp)
   149f0:	0001b6b7          	lui	a3,0x1b
   149f4:	b3868693          	addi	a3,a3,-1224 # 1ab38 <zeroes.4137+0x78>
   149f8:	00d8b023          	sd	a3,0(a7)
   149fc:	00178793          	addi	a5,a5,1
   14a00:	00100693          	li	a3,1
   14a04:	0017071b          	addiw	a4,a4,1
   14a08:	00d8b423          	sd	a3,8(a7)
   14a0c:	0cf13023          	sd	a5,192(sp)
   14a10:	0ae12c23          	sw	a4,184(sp)
   14a14:	00700693          	li	a3,7
   14a18:	01088893          	addi	a7,a7,16
   14a1c:	16e6ca63          	blt	a3,a4,14b90 <_vfprintf_r+0x16f4>
   14a20:	12040663          	beqz	s0,14b4c <_vfprintf_r+0x16b0>
   14a24:	06013703          	ld	a4,96(sp)
   14a28:	06813683          	ld	a3,104(sp)
   14a2c:	01088893          	addi	a7,a7,16
   14a30:	fee8b823          	sd	a4,-16(a7)
   14a34:	0b812703          	lw	a4,184(sp)
   14a38:	00f687b3          	add	a5,a3,a5
   14a3c:	fed8bc23          	sd	a3,-8(a7)
   14a40:	0017071b          	addiw	a4,a4,1
   14a44:	0cf13023          	sd	a5,192(sp)
   14a48:	0ae12c23          	sw	a4,184(sp)
   14a4c:	00700693          	li	a3,7
   14a50:	3ee6ca63          	blt	a3,a4,14e44 <_vfprintf_r+0x19a8>
   14a54:	4080043b          	negw	s0,s0
   14a58:	20805263          	blez	s0,14c5c <_vfprintf_r+0x17c0>
   14a5c:	01000693          	li	a3,16
   14a60:	1a86d663          	ble	s0,a3,14c0c <_vfprintf_r+0x1770>
   14a64:	01000d13          	li	s10,16
   14a68:	00913823          	sd	s1,16(sp)
   14a6c:	00700813          	li	a6,7
   14a70:	000d0693          	mv	a3,s10
   14a74:	00c0006f          	j	14a80 <_vfprintf_r+0x15e4>
   14a78:	ff04041b          	addiw	s0,s0,-16
   14a7c:	1886da63          	ble	s0,a3,14c10 <_vfprintf_r+0x1774>
   14a80:	01078793          	addi	a5,a5,16
   14a84:	0017071b          	addiw	a4,a4,1
   14a88:	0098b023          	sd	s1,0(a7)
   14a8c:	01a8b423          	sd	s10,8(a7)
   14a90:	0cf13023          	sd	a5,192(sp)
   14a94:	0ae12c23          	sw	a4,184(sp)
   14a98:	01088893          	addi	a7,a7,16
   14a9c:	fce85ee3          	ble	a4,a6,14a78 <_vfprintf_r+0x15dc>
   14aa0:	0b010613          	addi	a2,sp,176
   14aa4:	000a0593          	mv	a1,s4
   14aa8:	000b8513          	mv	a0,s7
   14aac:	02d13023          	sd	a3,32(sp)
   14ab0:	01013023          	sd	a6,0(sp)
   14ab4:	5f9030ef          	jal	ra,188ac <__sprint_r>
   14ab8:	00050463          	beqz	a0,14ac0 <_vfprintf_r+0x1624>
   14abc:	cf1fe06f          	j	137ac <_vfprintf_r+0x310>
   14ac0:	0c013783          	ld	a5,192(sp)
   14ac4:	0b812703          	lw	a4,184(sp)
   14ac8:	000b0893          	mv	a7,s6
   14acc:	02013683          	ld	a3,32(sp)
   14ad0:	00013803          	ld	a6,0(sp)
   14ad4:	fa5ff06f          	j	14a78 <_vfprintf_r+0x15dc>
   14ad8:	fff00513          	li	a0,-1
   14adc:	ce5fe06f          	j	137c0 <_vfprintf_r+0x324>
   14ae0:	04700793          	li	a5,71
   14ae4:	27a7c863          	blt	a5,s10,14d54 <_vfprintf_r+0x18b8>
   14ae8:	0001b937          	lui	s2,0x1b
   14aec:	af090913          	addi	s2,s2,-1296 # 1aaf0 <zeroes.4137+0x30>
   14af0:	00300793          	li	a5,3
   14af4:	00f12423          	sw	a5,8(sp)
   14af8:	f7fc7c13          	andi	s8,s8,-129
   14afc:	08f14603          	lbu	a2,143(sp)
   14b00:	02f12023          	sw	a5,32(sp)
   14b04:	00000413          	li	s0,0
   14b08:	04012623          	sw	zero,76(sp)
   14b0c:	da5fe06f          	j	138b0 <_vfprintf_r+0x414>
   14b10:	01c12703          	lw	a4,28(sp)
   14b14:	00e7a023          	sw	a4,0(a5)
   14b18:	aa5fe06f          	j	135bc <_vfprintf_r+0x120>
   14b1c:	0001b937          	lui	s2,0x1b
   14b20:	ae090913          	addi	s2,s2,-1312 # 1aae0 <zeroes.4137+0x20>
   14b24:	c34ff06f          	j	13f58 <_vfprintf_r+0xabc>
   14b28:	0b010613          	addi	a2,sp,176
   14b2c:	000a0593          	mv	a1,s4
   14b30:	000b8513          	mv	a0,s7
   14b34:	579030ef          	jal	ra,188ac <__sprint_r>
   14b38:	00050463          	beqz	a0,14b40 <_vfprintf_r+0x16a4>
   14b3c:	c71fe06f          	j	137ac <_vfprintf_r+0x310>
   14b40:	0c013783          	ld	a5,192(sp)
   14b44:	000b0893          	mv	a7,s6
   14b48:	931ff06f          	j	14478 <_vfprintf_r+0xfdc>
   14b4c:	07012703          	lw	a4,112(sp)
   14b50:	ec071ae3          	bnez	a4,14a24 <_vfprintf_r+0x1588>
   14b54:	001c7713          	andi	a4,s8,1
   14b58:	a4070c63          	beqz	a4,13db0 <_vfprintf_r+0x914>
   14b5c:	ec9ff06f          	j	14a24 <_vfprintf_r+0x1588>
   14b60:	0b010613          	addi	a2,sp,176
   14b64:	000a0593          	mv	a1,s4
   14b68:	000b8513          	mv	a0,s7
   14b6c:	541030ef          	jal	ra,188ac <__sprint_r>
   14b70:	00050463          	beqz	a0,14b78 <_vfprintf_r+0x16dc>
   14b74:	c39fe06f          	j	137ac <_vfprintf_r+0x310>
   14b78:	09812703          	lw	a4,152(sp)
   14b7c:	07012683          	lw	a3,112(sp)
   14b80:	0c013783          	ld	a5,192(sp)
   14b84:	000b0893          	mv	a7,s6
   14b88:	40e6873b          	subw	a4,a3,a4
   14b8c:	b15ff06f          	j	146a0 <_vfprintf_r+0x1204>
   14b90:	0b010613          	addi	a2,sp,176
   14b94:	000a0593          	mv	a1,s4
   14b98:	000b8513          	mv	a0,s7
   14b9c:	511030ef          	jal	ra,188ac <__sprint_r>
   14ba0:	00050463          	beqz	a0,14ba8 <_vfprintf_r+0x170c>
   14ba4:	c09fe06f          	j	137ac <_vfprintf_r+0x310>
   14ba8:	09812403          	lw	s0,152(sp)
   14bac:	0c013783          	ld	a5,192(sp)
   14bb0:	000b0893          	mv	a7,s6
   14bb4:	e60418e3          	bnez	s0,14a24 <_vfprintf_r+0x1588>
   14bb8:	f95ff06f          	j	14b4c <_vfprintf_r+0x16b0>
   14bbc:	001c7793          	andi	a5,s8,1
   14bc0:	00078e63          	beqz	a5,14bdc <_vfprintf_r+0x1740>
   14bc4:	03000793          	li	a5,48
   14bc8:	0ef107a3          	sb	a5,239(sp)
   14bcc:	07813783          	ld	a5,120(sp)
   14bd0:	0ef10913          	addi	s2,sp,239
   14bd4:	02f12023          	sw	a5,32(sp)
   14bd8:	cc1fe06f          	j	13898 <_vfprintf_r+0x3fc>
   14bdc:	02012023          	sw	zero,32(sp)
   14be0:	000b0913          	mv	s2,s6
   14be4:	cb5fe06f          	j	13898 <_vfprintf_r+0x3fc>
   14be8:	0b010613          	addi	a2,sp,176
   14bec:	000a0593          	mv	a1,s4
   14bf0:	000b8513          	mv	a0,s7
   14bf4:	4b9030ef          	jal	ra,188ac <__sprint_r>
   14bf8:	00050463          	beqz	a0,14c00 <_vfprintf_r+0x1764>
   14bfc:	bb1fe06f          	j	137ac <_vfprintf_r+0x310>
   14c00:	0c013783          	ld	a5,192(sp)
   14c04:	000b0893          	mv	a7,s6
   14c08:	e14ff06f          	j	1421c <_vfprintf_r+0xd80>
   14c0c:	00913823          	sd	s1,16(sp)
   14c10:	01013683          	ld	a3,16(sp)
   14c14:	008787b3          	add	a5,a5,s0
   14c18:	0017071b          	addiw	a4,a4,1
   14c1c:	00d8b023          	sd	a3,0(a7)
   14c20:	0088b423          	sd	s0,8(a7)
   14c24:	0cf13023          	sd	a5,192(sp)
   14c28:	0ae12c23          	sw	a4,184(sp)
   14c2c:	00700693          	li	a3,7
   14c30:	01088893          	addi	a7,a7,16
   14c34:	02e6d463          	ble	a4,a3,14c5c <_vfprintf_r+0x17c0>
   14c38:	0b010613          	addi	a2,sp,176
   14c3c:	000a0593          	mv	a1,s4
   14c40:	000b8513          	mv	a0,s7
   14c44:	469030ef          	jal	ra,188ac <__sprint_r>
   14c48:	00050463          	beqz	a0,14c50 <_vfprintf_r+0x17b4>
   14c4c:	b61fe06f          	j	137ac <_vfprintf_r+0x310>
   14c50:	0c013783          	ld	a5,192(sp)
   14c54:	0b812703          	lw	a4,184(sp)
   14c58:	000b0893          	mv	a7,s6
   14c5c:	07012683          	lw	a3,112(sp)
   14c60:	0017071b          	addiw	a4,a4,1
   14c64:	0128b023          	sd	s2,0(a7)
   14c68:	00f687b3          	add	a5,a3,a5
   14c6c:	cecff06f          	j	14158 <_vfprintf_r+0xcbc>
   14c70:	00090513          	mv	a0,s2
   14c74:	d68fe0ef          	jal	ra,131dc <strlen>
   14c78:	0005079b          	sext.w	a5,a0
   14c7c:	02f12023          	sw	a5,32(sp)
   14c80:	00078d93          	mv	s11,a5
   14c84:	00013883          	ld	a7,0(sp)
   14c88:	0007c463          	bltz	a5,14c90 <_vfprintf_r+0x17f4>
   14c8c:	cf5fe06f          	j	13980 <_vfprintf_r+0x4e4>
   14c90:	00000d93          	li	s11,0
   14c94:	cedfe06f          	j	13980 <_vfprintf_r+0x4e4>
   14c98:	0c013783          	ld	a5,192(sp)
   14c9c:	0b812703          	lw	a4,184(sp)
   14ca0:	05513823          	sd	s5,80(sp)
   14ca4:	f6dfe06f          	j	13c10 <_vfprintf_r+0x774>
   14ca8:	00000413          	li	s0,0
   14cac:	fd0ff06f          	j	1447c <_vfprintf_r+0xfe0>
   14cb0:	00000413          	li	s0,0
   14cb4:	9f1ff06f          	j	146a4 <_vfprintf_r+0x1208>
   14cb8:	02d00613          	li	a2,45
   14cbc:	00100713          	li	a4,1
   14cc0:	00100693          	li	a3,1
   14cc4:	00d71463          	bne	a4,a3,14ccc <_vfprintf_r+0x1830>
   14cc8:	d05fe06f          	j	139cc <_vfprintf_r+0x530>
   14ccc:	00200693          	li	a3,2
   14cd0:	00d71463          	bne	a4,a3,14cd8 <_vfprintf_r+0x183c>
   14cd4:	a31fe06f          	j	13704 <_vfprintf_r+0x268>
   14cd8:	b81fe06f          	j	13858 <_vfprintf_r+0x3bc>
   14cdc:	00600713          	li	a4,6
   14ce0:	00877463          	bleu	s0,a4,14ce8 <_vfprintf_r+0x184c>
   14ce4:	00070413          	mv	s0,a4
   14ce8:	02812023          	sw	s0,32(sp)
   14cec:	00040d93          	mv	s11,s0
   14cf0:	32044a63          	bltz	s0,15024 <_vfprintf_r+0x1b88>
   14cf4:	0001b937          	lui	s2,0x1b
   14cf8:	01b12423          	sw	s11,8(sp)
   14cfc:	03913423          	sd	s9,40(sp)
   14d00:	00000613          	li	a2,0
   14d04:	00000413          	li	s0,0
   14d08:	04012623          	sw	zero,76(sp)
   14d0c:	b3090913          	addi	s2,s2,-1232 # 1ab30 <zeroes.4137+0x70>
   14d10:	e45fe06f          	j	13b54 <_vfprintf_r+0x6b8>
   14d14:	0b812703          	lw	a4,184(sp)
   14d18:	05513823          	sd	s5,80(sp)
   14d1c:	91cff06f          	j	13e38 <_vfprintf_r+0x99c>
   14d20:	00070c13          	mv	s8,a4
   14d24:	00000613          	li	a2,0
   14d28:	00200713          	li	a4,2
   14d2c:	f95ff06f          	j	14cc0 <_vfprintf_r+0x1824>
   14d30:	001c7793          	andi	a5,s8,1
   14d34:	00b50733          	add	a4,a0,a1
   14d38:	b8079ce3          	bnez	a5,148d0 <_vfprintf_r+0x1434>
   14d3c:	0a813783          	ld	a5,168(sp)
   14d40:	bc1ff06f          	j	14900 <_vfprintf_r+0x1464>
   14d44:	02d00793          	li	a5,45
   14d48:	08f107a3          	sb	a5,143(sp)
   14d4c:	02d00613          	li	a2,45
   14d50:	9f8ff06f          	j	13f48 <_vfprintf_r+0xaac>
   14d54:	0001b937          	lui	s2,0x1b
   14d58:	af890913          	addi	s2,s2,-1288 # 1aaf8 <zeroes.4137+0x38>
   14d5c:	d95ff06f          	j	14af0 <_vfprintf_r+0x1654>
   14d60:	001c7793          	andi	a5,s8,1
   14d64:	26079a63          	bnez	a5,14fd8 <_vfprintf_r+0x1b3c>
   14d68:	0a813783          	ld	a5,168(sp)
   14d6c:	412787b3          	sub	a5,a5,s2
   14d70:	06f12823          	sw	a5,112(sp)
   14d74:	35ad9c63          	bne	s11,s10,150cc <_vfprintf_r+0x1c30>
   14d78:	09812783          	lw	a5,152(sp)
   14d7c:	ffd00713          	li	a4,-3
   14d80:	02e7cc63          	blt	a5,a4,14db8 <_vfprintf_r+0x191c>
   14d84:	02f44a63          	blt	s0,a5,14db8 <_vfprintf_r+0x191c>
   14d88:	04f12623          	sw	a5,76(sp)
   14d8c:	b9dff06f          	j	14928 <_vfprintf_r+0x148c>
   14d90:	02d00713          	li	a4,45
   14d94:	08e107a3          	sb	a4,143(sp)
   14d98:	00f12423          	sw	a5,8(sp)
   14d9c:	00012c03          	lw	s8,0(sp)
   14da0:	02d00613          	li	a2,45
   14da4:	00000413          	li	s0,0
   14da8:	b0dfe06f          	j	138b4 <_vfprintf_r+0x418>
   14dac:	0b812703          	lw	a4,184(sp)
   14db0:	00913823          	sd	s1,16(sp)
   14db4:	d78ff06f          	j	1432c <_vfprintf_r+0xe90>
   14db8:	ffed0d1b          	addiw	s10,s10,-2
   14dbc:	fff7879b          	addiw	a5,a5,-1
   14dc0:	08f12c23          	sw	a5,152(sp)
   14dc4:	0ba10023          	sb	s10,160(sp)
   14dc8:	2c07c863          	bltz	a5,15098 <_vfprintf_r+0x1bfc>
   14dcc:	02b00713          	li	a4,43
   14dd0:	0ae100a3          	sb	a4,161(sp)
   14dd4:	00900613          	li	a2,9
   14dd8:	16f64463          	blt	a2,a5,14f40 <_vfprintf_r+0x1aa4>
   14ddc:	0307879b          	addiw	a5,a5,48
   14de0:	03000713          	li	a4,48
   14de4:	0af101a3          	sb	a5,163(sp)
   14de8:	0ae10123          	sb	a4,162(sp)
   14dec:	0a410793          	addi	a5,sp,164
   14df0:	0a010713          	addi	a4,sp,160
   14df4:	40e787bb          	subw	a5,a5,a4
   14df8:	07012703          	lw	a4,112(sp)
   14dfc:	06f12a23          	sw	a5,116(sp)
   14e00:	00e787bb          	addw	a5,a5,a4
   14e04:	02f12023          	sw	a5,32(sp)
   14e08:	00100793          	li	a5,1
   14e0c:	26e7d263          	ble	a4,a5,15070 <_vfprintf_r+0x1bd4>
   14e10:	02012783          	lw	a5,32(sp)
   14e14:	0017879b          	addiw	a5,a5,1
   14e18:	02f12023          	sw	a5,32(sp)
   14e1c:	2607c463          	bltz	a5,15084 <_vfprintf_r+0x1be8>
   14e20:	04012623          	sw	zero,76(sp)
   14e24:	b2dff06f          	j	14950 <_vfprintf_r+0x14b4>
   14e28:	00812423          	sw	s0,8(sp)
   14e2c:	02812023          	sw	s0,32(sp)
   14e30:	08f14603          	lbu	a2,143(sp)
   14e34:	03913423          	sd	s9,40(sp)
   14e38:	00000413          	li	s0,0
   14e3c:	04012623          	sw	zero,76(sp)
   14e40:	a71fe06f          	j	138b0 <_vfprintf_r+0x414>
   14e44:	0b010613          	addi	a2,sp,176
   14e48:	000a0593          	mv	a1,s4
   14e4c:	000b8513          	mv	a0,s7
   14e50:	25d030ef          	jal	ra,188ac <__sprint_r>
   14e54:	00050463          	beqz	a0,14e5c <_vfprintf_r+0x19c0>
   14e58:	955fe06f          	j	137ac <_vfprintf_r+0x310>
   14e5c:	09812403          	lw	s0,152(sp)
   14e60:	0c013783          	ld	a5,192(sp)
   14e64:	0b812703          	lw	a4,184(sp)
   14e68:	000b0893          	mv	a7,s6
   14e6c:	be9ff06f          	j	14a54 <_vfprintf_r+0x15b8>
   14e70:	9e0410e3          	bnez	s0,14850 <_vfprintf_r+0x13b4>
   14e74:	00090413          	mv	s0,s2
   14e78:	9d9ff06f          	j	14850 <_vfprintf_r+0x13b4>
   14e7c:	00600413          	li	s0,6
   14e80:	9d1ff06f          	j	14850 <_vfprintf_r+0x13b4>
   14e84:	228405d3          	fmv.d	fa1,fs0
   14e88:	09810713          	addi	a4,sp,152
   14e8c:	0a810813          	addi	a6,sp,168
   14e90:	09c10793          	addi	a5,sp,156
   14e94:	00040693          	mv	a3,s0
   14e98:	00300613          	li	a2,3
   14e9c:	000b8513          	mv	a0,s7
   14ea0:	01113423          	sd	a7,8(sp)
   14ea4:	145000ef          	jal	ra,157e8 <_dtoa_r>
   14ea8:	00813883          	ld	a7,8(sp)
   14eac:	00040713          	mv	a4,s0
   14eb0:	00050913          	mv	s2,a0
   14eb4:	00e50733          	add	a4,a0,a4
   14eb8:	00040593          	mv	a1,s0
   14ebc:	00094683          	lbu	a3,0(s2)
   14ec0:	03000793          	li	a5,48
   14ec4:	14f68063          	beq	a3,a5,15004 <_vfprintf_r+0x1b68>
   14ec8:	09812583          	lw	a1,152(sp)
   14ecc:	00b70733          	add	a4,a4,a1
   14ed0:	a01ff06f          	j	148d0 <_vfprintf_r+0x1434>
   14ed4:	22841453          	fneg.d	fs0,fs0
   14ed8:	02d00c93          	li	s9,45
   14edc:	991ff06f          	j	1486c <_vfprintf_r+0x13d0>
   14ee0:	04c12703          	lw	a4,76(sp)
   14ee4:	00100793          	li	a5,1
   14ee8:	1ae05263          	blez	a4,1508c <_vfprintf_r+0x1bf0>
   14eec:	07012703          	lw	a4,112(sp)
   14ef0:	00e787bb          	addw	a5,a5,a4
   14ef4:	02f12023          	sw	a5,32(sp)
   14ef8:	0007ce63          	bltz	a5,14f14 <_vfprintf_r+0x1a78>
   14efc:	06700d13          	li	s10,103
   14f00:	a51ff06f          	j	14950 <_vfprintf_r+0x14b4>
   14f04:	04c12783          	lw	a5,76(sp)
   14f08:	0017879b          	addiw	a5,a5,1
   14f0c:	02f12023          	sw	a5,32(sp)
   14f10:	fe07d6e3          	bgez	a5,14efc <_vfprintf_r+0x1a60>
   14f14:	00000793          	li	a5,0
   14f18:	06700d13          	li	s10,103
   14f1c:	a35ff06f          	j	14950 <_vfprintf_r+0x14b4>
   14f20:	09812783          	lw	a5,152(sp)
   14f24:	04f12623          	sw	a5,76(sp)
   14f28:	12f05263          	blez	a5,1504c <_vfprintf_r+0x1bb0>
   14f2c:	0a041e63          	bnez	s0,14fe8 <_vfprintf_r+0x1b4c>
   14f30:	001c7c13          	andi	s8,s8,1
   14f34:	0a0c1a63          	bnez	s8,14fe8 <_vfprintf_r+0x1b4c>
   14f38:	02f12023          	sw	a5,32(sp)
   14f3c:	a15ff06f          	j	14950 <_vfprintf_r+0x14b4>
   14f40:	0af10593          	addi	a1,sp,175
   14f44:	00058713          	mv	a4,a1
   14f48:	00a00513          	li	a0,10
   14f4c:	02a7e6bb          	remw	a3,a5,a0
   14f50:	fff70713          	addi	a4,a4,-1
   14f54:	02a7c7bb          	divw	a5,a5,a0
   14f58:	0306869b          	addiw	a3,a3,48
   14f5c:	00d70023          	sb	a3,0(a4)
   14f60:	fef646e3          	blt	a2,a5,14f4c <_vfprintf_r+0x1ab0>
   14f64:	0307879b          	addiw	a5,a5,48
   14f68:	0ff7f793          	andi	a5,a5,255
   14f6c:	fff70693          	addi	a3,a4,-1
   14f70:	fef70fa3          	sb	a5,-1(a4)
   14f74:	16b6f863          	bleu	a1,a3,150e4 <_vfprintf_r+0x1c48>
   14f78:	0a210613          	addi	a2,sp,162
   14f7c:	0080006f          	j	14f84 <_vfprintf_r+0x1ae8>
   14f80:	0006c783          	lbu	a5,0(a3)
   14f84:	00160613          	addi	a2,a2,1
   14f88:	00168693          	addi	a3,a3,1
   14f8c:	fef60fa3          	sb	a5,-1(a2)
   14f90:	feb698e3          	bne	a3,a1,14f80 <_vfprintf_r+0x1ae4>
   14f94:	0b010793          	addi	a5,sp,176
   14f98:	40e787b3          	sub	a5,a5,a4
   14f9c:	0a210713          	addi	a4,sp,162
   14fa0:	00f707b3          	add	a5,a4,a5
   14fa4:	e4dff06f          	j	14df0 <_vfprintf_r+0x1954>
   14fa8:	228405d3          	fmv.d	fa1,fs0
   14fac:	0a810813          	addi	a6,sp,168
   14fb0:	09c10793          	addi	a5,sp,156
   14fb4:	09810713          	addi	a4,sp,152
   14fb8:	00040693          	mv	a3,s0
   14fbc:	00300613          	li	a2,3
   14fc0:	000b8513          	mv	a0,s7
   14fc4:	01113423          	sd	a7,8(sp)
   14fc8:	021000ef          	jal	ra,157e8 <_dtoa_r>
   14fcc:	00813883          	ld	a7,8(sp)
   14fd0:	00050913          	mv	s2,a0
   14fd4:	00040593          	mv	a1,s0
   14fd8:	04600793          	li	a5,70
   14fdc:	00b90733          	add	a4,s2,a1
   14fe0:	ecfd0ee3          	beq	s10,a5,14ebc <_vfprintf_r+0x1a20>
   14fe4:	8edff06f          	j	148d0 <_vfprintf_r+0x1434>
   14fe8:	04c12783          	lw	a5,76(sp)
   14fec:	0014041b          	addiw	s0,s0,1
   14ff0:	008787bb          	addw	a5,a5,s0
   14ff4:	02f12023          	sw	a5,32(sp)
   14ff8:	9407dce3          	bgez	a5,14950 <_vfprintf_r+0x14b4>
   14ffc:	00000793          	li	a5,0
   15000:	951ff06f          	j	14950 <_vfprintf_r+0x14b4>
   15004:	f20007d3          	fmv.d.x	fa5,zero
   15008:	a2f427d3          	feq.d	a5,fs0,fa5
   1500c:	ea079ee3          	bnez	a5,14ec8 <_vfprintf_r+0x1a2c>
   15010:	00100793          	li	a5,1
   15014:	40b785bb          	subw	a1,a5,a1
   15018:	08b12c23          	sw	a1,152(sp)
   1501c:	00b70733          	add	a4,a4,a1
   15020:	8b1ff06f          	j	148d0 <_vfprintf_r+0x1434>
   15024:	00000d93          	li	s11,0
   15028:	ccdff06f          	j	14cf4 <_vfprintf_r+0x1858>
   1502c:	02813783          	ld	a5,40(sp)
   15030:	0007a403          	lw	s0,0(a5)
   15034:	00878793          	addi	a5,a5,8
   15038:	02f13423          	sd	a5,40(sp)
   1503c:	00044463          	bltz	s0,15044 <_vfprintf_r+0x1ba8>
   15040:	e18fe06f          	j	13658 <_vfprintf_r+0x1bc>
   15044:	fff00413          	li	s0,-1
   15048:	e10fe06f          	j	13658 <_vfprintf_r+0x1bc>
   1504c:	00041a63          	bnez	s0,15060 <_vfprintf_r+0x1bc4>
   15050:	00100793          	li	a5,1
   15054:	00fc7c33          	and	s8,s8,a5
   15058:	02f12023          	sw	a5,32(sp)
   1505c:	8e0c0ae3          	beqz	s8,14950 <_vfprintf_r+0x14b4>
   15060:	0024079b          	addiw	a5,s0,2
   15064:	02f12023          	sw	a5,32(sp)
   15068:	8e07d4e3          	bgez	a5,14950 <_vfprintf_r+0x14b4>
   1506c:	f91ff06f          	j	14ffc <_vfprintf_r+0x1b60>
   15070:	00fc7c33          	and	s8,s8,a5
   15074:	d80c1ee3          	bnez	s8,14e10 <_vfprintf_r+0x1974>
   15078:	02012703          	lw	a4,32(sp)
   1507c:	00070793          	mv	a5,a4
   15080:	da0750e3          	bgez	a4,14e20 <_vfprintf_r+0x1984>
   15084:	00000793          	li	a5,0
   15088:	d99ff06f          	j	14e20 <_vfprintf_r+0x1984>
   1508c:	00200793          	li	a5,2
   15090:	40e787bb          	subw	a5,a5,a4
   15094:	e59ff06f          	j	14eec <_vfprintf_r+0x1a50>
   15098:	02d00713          	li	a4,45
   1509c:	40f007bb          	negw	a5,a5
   150a0:	0ae100a3          	sb	a4,161(sp)
   150a4:	d31ff06f          	j	14dd4 <_vfprintf_r+0x1938>
   150a8:	08b107a3          	sb	a1,143(sp)
   150ac:	ed9fe06f          	j	13f84 <_vfprintf_r+0xae8>
   150b0:	00000793          	li	a5,0
   150b4:	891ff06f          	j	14944 <_vfprintf_r+0x14a8>
   150b8:	08b107a3          	sb	a1,143(sp)
   150bc:	010c6c13          	ori	s8,s8,16
   150c0:	f2dfe06f          	j	13fec <_vfprintf_r+0xb50>
   150c4:	08b107a3          	sb	a1,143(sp)
   150c8:	ef5fe06f          	j	13fbc <_vfprintf_r+0xb20>
   150cc:	09812783          	lw	a5,152(sp)
   150d0:	cedff06f          	j	14dbc <_vfprintf_r+0x1920>
   150d4:	08b107a3          	sb	a1,143(sp)
   150d8:	e2dfe06f          	j	13f04 <_vfprintf_r+0xa68>
   150dc:	08b107a3          	sb	a1,143(sp)
   150e0:	dd5fe06f          	j	13eb4 <_vfprintf_r+0xa18>
   150e4:	0a210793          	addi	a5,sp,162
   150e8:	d09ff06f          	j	14df0 <_vfprintf_r+0x1954>
   150ec:	08b107a3          	sb	a1,143(sp)
   150f0:	f41fe06f          	j	14030 <_vfprintf_r+0xb94>
   150f4:	08b107a3          	sb	a1,143(sp)
   150f8:	f28fe06f          	j	13820 <_vfprintf_r+0x384>
   150fc:	08b107a3          	sb	a1,143(sp)
   15100:	9c5fe06f          	j	13ac4 <_vfprintf_r+0x628>
   15104:	08b107a3          	sb	a1,143(sp)
   15108:	010c6c13          	ori	s8,s8,16
   1510c:	979fe06f          	j	13a84 <_vfprintf_r+0x5e8>
   15110:	08b107a3          	sb	a1,143(sp)
   15114:	010c6c13          	ori	s8,s8,16
   15118:	929fe06f          	j	13a40 <_vfprintf_r+0x5a4>
   1511c:	08b107a3          	sb	a1,143(sp)
   15120:	881fe06f          	j	139a0 <_vfprintf_r+0x504>

0000000000015124 <vfprintf>:
   15124:	00060693          	mv	a3,a2
   15128:	00058613          	mv	a2,a1
   1512c:	00050593          	mv	a1,a0
   15130:	8101b503          	ld	a0,-2032(gp)
   15134:	b68fe06f          	j	1349c <_vfprintf_r>

0000000000015138 <__sbprintf>:
   15138:	0105d783          	lhu	a5,16(a1)
   1513c:	0ac5ae03          	lw	t3,172(a1)
   15140:	0125d303          	lhu	t1,18(a1)
   15144:	0305b883          	ld	a7,48(a1)
   15148:	0405b803          	ld	a6,64(a1)
   1514c:	b3010113          	addi	sp,sp,-1232
   15150:	ffd7f793          	andi	a5,a5,-3
   15154:	40000713          	li	a4,1024
   15158:	4c813023          	sd	s0,1216(sp)
   1515c:	00f11823          	sh	a5,16(sp)
   15160:	00058413          	mv	s0,a1
   15164:	0b010793          	addi	a5,sp,176
   15168:	00010593          	mv	a1,sp
   1516c:	4a913c23          	sd	s1,1208(sp)
   15170:	4b213823          	sd	s2,1200(sp)
   15174:	4c113423          	sd	ra,1224(sp)
   15178:	00050913          	mv	s2,a0
   1517c:	0bc12623          	sw	t3,172(sp)
   15180:	00611923          	sh	t1,18(sp)
   15184:	03113823          	sd	a7,48(sp)
   15188:	05013023          	sd	a6,64(sp)
   1518c:	00f13023          	sd	a5,0(sp)
   15190:	00f13c23          	sd	a5,24(sp)
   15194:	00e12623          	sw	a4,12(sp)
   15198:	02e12023          	sw	a4,32(sp)
   1519c:	02012423          	sw	zero,40(sp)
   151a0:	afcfe0ef          	jal	ra,1349c <_vfprintf_r>
   151a4:	00050493          	mv	s1,a0
   151a8:	00054a63          	bltz	a0,151bc <__sbprintf+0x84>
   151ac:	00010593          	mv	a1,sp
   151b0:	00090513          	mv	a0,s2
   151b4:	939fb0ef          	jal	ra,10aec <_fflush_r>
   151b8:	02051c63          	bnez	a0,151f0 <__sbprintf+0xb8>
   151bc:	01015783          	lhu	a5,16(sp)
   151c0:	0407f793          	andi	a5,a5,64
   151c4:	00078863          	beqz	a5,151d4 <__sbprintf+0x9c>
   151c8:	01045783          	lhu	a5,16(s0)
   151cc:	0407e793          	ori	a5,a5,64
   151d0:	00f41823          	sh	a5,16(s0)
   151d4:	4c813083          	ld	ra,1224(sp)
   151d8:	00048513          	mv	a0,s1
   151dc:	4c013403          	ld	s0,1216(sp)
   151e0:	4b813483          	ld	s1,1208(sp)
   151e4:	4b013903          	ld	s2,1200(sp)
   151e8:	4d010113          	addi	sp,sp,1232
   151ec:	00008067          	ret
   151f0:	fff00493          	li	s1,-1
   151f4:	fc9ff06f          	j	151bc <__sbprintf+0x84>

00000000000151f8 <__swsetup_r>:
   151f8:	8101b783          	ld	a5,-2032(gp)
   151fc:	fe010113          	addi	sp,sp,-32
   15200:	00813823          	sd	s0,16(sp)
   15204:	00913423          	sd	s1,8(sp)
   15208:	00113c23          	sd	ra,24(sp)
   1520c:	00050493          	mv	s1,a0
   15210:	00058413          	mv	s0,a1
   15214:	00078663          	beqz	a5,15220 <__swsetup_r+0x28>
   15218:	0507a703          	lw	a4,80(a5)
   1521c:	0e070063          	beqz	a4,152fc <__swsetup_r+0x104>
   15220:	01041703          	lh	a4,16(s0)
   15224:	03071793          	slli	a5,a4,0x30
   15228:	0307d793          	srli	a5,a5,0x30
   1522c:	0087f693          	andi	a3,a5,8
   15230:	04068263          	beqz	a3,15274 <__swsetup_r+0x7c>
   15234:	01843683          	ld	a3,24(s0)
   15238:	06068663          	beqz	a3,152a4 <__swsetup_r+0xac>
   1523c:	0017f713          	andi	a4,a5,1
   15240:	08071463          	bnez	a4,152c8 <__swsetup_r+0xd0>
   15244:	0027f793          	andi	a5,a5,2
   15248:	00000713          	li	a4,0
   1524c:	00079463          	bnez	a5,15254 <__swsetup_r+0x5c>
   15250:	02042703          	lw	a4,32(s0)
   15254:	00e42623          	sw	a4,12(s0)
   15258:	00000513          	li	a0,0
   1525c:	08068263          	beqz	a3,152e0 <__swsetup_r+0xe8>
   15260:	01813083          	ld	ra,24(sp)
   15264:	01013403          	ld	s0,16(sp)
   15268:	00813483          	ld	s1,8(sp)
   1526c:	02010113          	addi	sp,sp,32
   15270:	00008067          	ret
   15274:	0107f693          	andi	a3,a5,16
   15278:	0c068663          	beqz	a3,15344 <__swsetup_r+0x14c>
   1527c:	0047f793          	andi	a5,a5,4
   15280:	08079463          	bnez	a5,15308 <__swsetup_r+0x110>
   15284:	01843683          	ld	a3,24(s0)
   15288:	00876793          	ori	a5,a4,8
   1528c:	0107979b          	slliw	a5,a5,0x10
   15290:	4107d79b          	sraiw	a5,a5,0x10
   15294:	00f41823          	sh	a5,16(s0)
   15298:	03079793          	slli	a5,a5,0x30
   1529c:	0307d793          	srli	a5,a5,0x30
   152a0:	f8069ee3          	bnez	a3,1523c <__swsetup_r+0x44>
   152a4:	2807f713          	andi	a4,a5,640
   152a8:	20000613          	li	a2,512
   152ac:	f8c708e3          	beq	a4,a2,1523c <__swsetup_r+0x44>
   152b0:	00040593          	mv	a1,s0
   152b4:	00048513          	mv	a0,s1
   152b8:	bb5fc0ef          	jal	ra,11e6c <__smakebuf_r>
   152bc:	01045783          	lhu	a5,16(s0)
   152c0:	01843683          	ld	a3,24(s0)
   152c4:	f79ff06f          	j	1523c <__swsetup_r+0x44>
   152c8:	02042783          	lw	a5,32(s0)
   152cc:	00042623          	sw	zero,12(s0)
   152d0:	00000513          	li	a0,0
   152d4:	40f007bb          	negw	a5,a5
   152d8:	02f42423          	sw	a5,40(s0)
   152dc:	f80692e3          	bnez	a3,15260 <__swsetup_r+0x68>
   152e0:	01041783          	lh	a5,16(s0)
   152e4:	0807f713          	andi	a4,a5,128
   152e8:	f6070ce3          	beqz	a4,15260 <__swsetup_r+0x68>
   152ec:	0407e793          	ori	a5,a5,64
   152f0:	00f41823          	sh	a5,16(s0)
   152f4:	fff00513          	li	a0,-1
   152f8:	f69ff06f          	j	15260 <__swsetup_r+0x68>
   152fc:	00078513          	mv	a0,a5
   15300:	dedfb0ef          	jal	ra,110ec <__sinit>
   15304:	f1dff06f          	j	15220 <__swsetup_r+0x28>
   15308:	05843583          	ld	a1,88(s0)
   1530c:	00058e63          	beqz	a1,15328 <__swsetup_r+0x130>
   15310:	07440793          	addi	a5,s0,116
   15314:	00f58863          	beq	a1,a5,15324 <__swsetup_r+0x12c>
   15318:	00048513          	mv	a0,s1
   1531c:	8b8fc0ef          	jal	ra,113d4 <_free_r>
   15320:	01041703          	lh	a4,16(s0)
   15324:	04043c23          	sd	zero,88(s0)
   15328:	01843683          	ld	a3,24(s0)
   1532c:	fdb77713          	andi	a4,a4,-37
   15330:	0107171b          	slliw	a4,a4,0x10
   15334:	4107571b          	sraiw	a4,a4,0x10
   15338:	00042423          	sw	zero,8(s0)
   1533c:	00d43023          	sd	a3,0(s0)
   15340:	f49ff06f          	j	15288 <__swsetup_r+0x90>
   15344:	00900793          	li	a5,9
   15348:	00f4a023          	sw	a5,0(s1)
   1534c:	04076713          	ori	a4,a4,64
   15350:	00e41823          	sh	a4,16(s0)
   15354:	fff00513          	li	a0,-1
   15358:	f09ff06f          	j	15260 <__swsetup_r+0x68>

000000000001535c <__register_exitproc>:
   1535c:	fd010113          	addi	sp,sp,-48
   15360:	02813023          	sd	s0,32(sp)
   15364:	8081b403          	ld	s0,-2040(gp)
   15368:	00913c23          	sd	s1,24(sp)
   1536c:	00050493          	mv	s1,a0
   15370:	1f843503          	ld	a0,504(s0)
   15374:	01213823          	sd	s2,16(sp)
   15378:	01313423          	sd	s3,8(sp)
   1537c:	01413023          	sd	s4,0(sp)
   15380:	02113423          	sd	ra,40(sp)
   15384:	00058913          	mv	s2,a1
   15388:	00060a13          	mv	s4,a2
   1538c:	00068993          	mv	s3,a3
   15390:	0c050463          	beqz	a0,15458 <__register_exitproc+0xfc>
   15394:	00852703          	lw	a4,8(a0)
   15398:	01f00793          	li	a5,31
   1539c:	0017059b          	addiw	a1,a4,1
   153a0:	02e7de63          	ble	a4,a5,153dc <__register_exitproc+0x80>
   153a4:	000177b7          	lui	a5,0x17
   153a8:	f0478793          	addi	a5,a5,-252 # 16f04 <malloc>
   153ac:	0a078c63          	beqz	a5,15464 <__register_exitproc+0x108>
   153b0:	31800513          	li	a0,792
   153b4:	351010ef          	jal	ra,16f04 <malloc>
   153b8:	0a050663          	beqz	a0,15464 <__register_exitproc+0x108>
   153bc:	1f843783          	ld	a5,504(s0)
   153c0:	00052423          	sw	zero,8(a0)
   153c4:	00100593          	li	a1,1
   153c8:	00f53023          	sd	a5,0(a0)
   153cc:	1ea43c23          	sd	a0,504(s0)
   153d0:	30052823          	sw	zero,784(a0)
   153d4:	30052a23          	sw	zero,788(a0)
   153d8:	00000713          	li	a4,0
   153dc:	00070793          	mv	a5,a4
   153e0:	02049e63          	bnez	s1,1541c <__register_exitproc+0xc0>
   153e4:	00278793          	addi	a5,a5,2
   153e8:	00379793          	slli	a5,a5,0x3
   153ec:	00b52423          	sw	a1,8(a0)
   153f0:	00f50533          	add	a0,a0,a5
   153f4:	01253023          	sd	s2,0(a0)
   153f8:	00000513          	li	a0,0
   153fc:	02813083          	ld	ra,40(sp)
   15400:	02013403          	ld	s0,32(sp)
   15404:	01813483          	ld	s1,24(sp)
   15408:	01013903          	ld	s2,16(sp)
   1540c:	00813983          	ld	s3,8(sp)
   15410:	00013a03          	ld	s4,0(sp)
   15414:	03010113          	addi	sp,sp,48
   15418:	00008067          	ret
   1541c:	00371813          	slli	a6,a4,0x3
   15420:	01050833          	add	a6,a0,a6
   15424:	11483823          	sd	s4,272(a6)
   15428:	31052883          	lw	a7,784(a0)
   1542c:	00100613          	li	a2,1
   15430:	00e6173b          	sllw	a4,a2,a4
   15434:	00e8e633          	or	a2,a7,a4
   15438:	30c52823          	sw	a2,784(a0)
